HI-TECH Software C Compiler 

Linker command line:

--edf=C:\Program Files (x86)\HI-TECH Software\PICC\9.81\dat\en_msgs.txt -cs \
  -h+prev0.sym -z -Q16F877 -ol.obj -Mprev0.map -E1 -ACONST=00h-0FFhx32 \
  -ACODE=00h-07FFhx4 -ASTRCODE=00h-01FFFh -AENTRY=00h-0FFhx32 \
  -ASTRING=00h-0FFhx32 -ABANK0=020h-06Fh -ABANK1=0A0h-0EFh \
  -ABANK2=0110h-016Fh -ABANK3=0190h-01EFh \
  -ARAM=020h-06Fh,0A0h-0EFh,0110h-016Fh,0190h-01EFh \
  -AABS1=020h-07Fh,0A0h-0EFh,0110h-016Fh,0190h-01EFh -ACOMMON=070h-07Fh \
  -ASFR0=00h-01Fh -ASFR1=080h-09Fh -ASFR2=0100h-010Fh -ASFR3=0180h-018Fh \
  -preset_vec=00h,intentry,init,end_init -ppowerup=CODE -pfunctab=CODE \
  -ACONFIG=02007h-02007h -pconfig=CONFIG -DCONFIG=2 -AIDLOC=02000h-02003h \
  -pidloc=IDLOC -DIDLOC=2 -AEEDATA=00h-0FFh/02100h -peeprom_data=EEDATA \
  -DEEDATA=2 -DCODE=2 -DSTRCODE=2 -DSTRING=2 -DCONST=2 -DENTRY=2 -k \
  startup.obj prev0.obj 

Object code version is 3.10

Machine type is 16F877



                Name                               Link     Load   Length Selector   Space Scale
startup.obj     end_init                              0        0        3        0       0
prev0.obj       text510                             B6E      B6E        8     16DC       0
                text509                             CEE      CEE       39     19DC       0
                text508                             BD6      BD6       20     17AC       0
                text507                             C68      C68       29     18D0       0
                text506                             B99      B99       14     1732       0
                text505                             2B9      2B9      144      572       0
                text504                             B67      B67        7     16CE       0
                text503                             C91      C91       2A     1922       0
                text502                             E2F      E2F       74     1C5E       0
                text501                             DC9      DC9       66     1B92       0
                text500                             EA3      EA3       8F     1D46       0
                text499                             1CE      1CE       EB      39C       0
                text498                             BF6      BF6       25     17EC       0
                text497                             C1B      C1B       25     1836       0
                text496                             D27      D27       3E     1A4E       0
                text495                             CBB      CBB       33     1976       0
                text494                              E6       E6       E8      1CC       0
                text493                             B7E      B7E        A     16FC       0
                text492                             D65      D65       64     1ACA       0
                text491                             F32      F32       CE     1E64       0
                text490                             3FD      3FD      403      7FA       0
                maintext                            BC1      BC1       15     1782       0
                cstackBANK0                          20       20       40       20       1
                cstackCOMMON                         70       70        E       70       1
                cstackBANK1                          A0       A0       3A       A0       1
                inittext                            B88      B88       11     1710       0
                clrtext                             B76      B76        8     16EC       0
                bssBANK3                            190      190       10      190       1
                dataBANK1                            DA       DA       14       A0       1
                dataBANK0                            60       60        5       20       1
                cinit                               C40      C40       28     1880       0
                strings                               3        3       DD        6       0
                idataBANK1                          BAD      BAD       14     175A       0
                idataBANK0                           E1       E1        5      1C2       0

TOTAL           Name                               Link     Load   Length     Space
        CLASS   CONST          

        CLASS   CODE           
                end_init                              0        0        3         0
                text510                             B6E      B6E        8         0
                text509                             CEE      CEE       39         0
                text508                             BD6      BD6       20         0
                text507                             C68      C68       29         0
                text506                             B99      B99       14         0
                text505                             2B9      2B9      144         0
                text504                             B67      B67        7         0
                text503                             C91      C91       2A         0
                text502                             E2F      E2F       74         0
                text501                             DC9      DC9       66         0
                text500                             EA3      EA3       8F         0
                text499                             1CE      1CE       EB         0
                text498                             BF6      BF6       25         0
                text497                             C1B      C1B       25         0
                text496                             D27      D27       3E         0
                text495                             CBB      CBB       33         0
                text494                              E6       E6       E8         0
                text493                             B7E      B7E        A         0
                text492                             D65      D65       64         0
                text491                             F32      F32       CE         0
                text490                             3FD      3FD      403         0
                maintext                            BC1      BC1       15         0
                inittext                            B88      B88       11         0
                clrtext                             B76      B76        8         0
                cinit                               C40      C40       28         0
                idataBANK1                          BAD      BAD       14         0
                idataBANK0                           E1       E1        5         0

        CLASS   STRCODE        

        CLASS   ENTRY          

        CLASS   STRING         
                strings                               3        3       DD         0

        CLASS   BANK0          
                cstackBANK0                          20       20       40         1
                dataBANK0                            60       60        5         1

        CLASS   BANK1          
                cstackBANK1                          A0       A0       3A         1
                dataBANK1                            DA       DA       14         1

        CLASS   BANK2          

        CLASS   BANK3          
                bssBANK3                            190      190       10         1

        CLASS   RAM            

        CLASS   ABS1           
                abs_s1                               7E       7E        2         1

        CLASS   COMMON         
                cstackCOMMON                         70       70        E         1

        CLASS   SFR0           

        CLASS   SFR1           

        CLASS   SFR2           

        CLASS   SFR3           

        CLASS   CONFIG         

        CLASS   IDLOC          

        CLASS   EEDATA         



SEGMENTS        Name                           Load    Length   Top    Selector   Space  Class     Delta

                reset_vec                      000000  000003  000003         0       0  CODE        2
                strings                        000003  0000DD  0000E0         6       0  STRING      2
                cstackBANK0                    000020  000045  000065        20       1  BANK0       1
                cstackCOMMON                   000070  00000E  00007E        70       1  COMMON      1
                cstackBANK1                    0000A0  00004E  0000EE        A0       1  BANK1       1
                bssBANK3                       000190  000010  0001A0       190       1  BANK3       1
                idataBANK0                     0000E1  000005  0000E6       1C2       0  CODE        2
                text494                        0000E6  0000E8  0001CE       1CC       0  CODE        2
                text499                        0001CE  0000EB  0002B9       39C       0  CODE        2
                text505                        0002B9  000144  0003FD       572       0  CODE        2
                text490                        0003FD  000403  000800       7FA       0  CODE        2
                text504                        000B67  000007  000B6E      16CE       0  CODE        2
                text510                        000B6E  000008  000B76      16DC       0  CODE        2
                clrtext                        000B76  000008  000B7E      16EC       0  CODE        2
                text493                        000B7E  00000A  000B88      16FC       0  CODE        2
                inittext                       000B88  000011  000B99      1710       0  CODE        2
                text506                        000B99  000014  000BAD      1732       0  CODE        2
                idataBANK1                     000BAD  000014  000BC1      175A       0  CODE        2
                maintext                       000BC1  000015  000BD6      1782       0  CODE        2
                text508                        000BD6  000020  000BF6      17AC       0  CODE        2
                text498                        000BF6  000025  000C1B      17EC       0  CODE        2
                text497                        000C1B  000025  000C40      1836       0  CODE        2
                cinit                          000C40  000028  000C68      1880       0  CODE        2
                text507                        000C68  000029  000C91      18D0       0  CODE        2
                text503                        000C91  00002A  000CBB      1922       0  CODE        2
                text495                        000CBB  000033  000CEE      1976       0  CODE        2
                text509                        000CEE  000039  000D27      19DC       0  CODE        2
                text496                        000D27  00003E  000D65      1A4E       0  CODE        2
                text492                        000D65  000064  000DC9      1ACA       0  CODE        2
                text501                        000DC9  000066  000E2F      1B92       0  CODE        2
                text502                        000E2F  000074  000EA3      1C5E       0  CODE        2
                text500                        000EA3  00008F  000F32      1D46       0  CODE        2
                text491                        000F32  0000CE  001000      1E64       0  CODE        2


UNUSED ADDRESS RANGES

        Name                Unused          Largest block    Delta
        BANK0            0065-006F              B           1
        BANK1            00EE-00EF              2           1
        BANK2            0110-016F             60           1
        BANK3            01A0-01EF             50           1
        CODE             00E0-00E0              1           2
                         0800-0B66            367
                         1000-1FFF            800
        CONFIG           2007-2007              1           2
        CONST            00E0-00E0              1           2
                         0800-0B66            100
                         1000-1FFF            100
        EEDATA           2100-21FF            100           2
        ENTRY            00E0-00E0              1           2
                         0800-0B66            100
                         1000-1FFF            100
        IDLOC            2000-2003              4           2
        RAM              0065-006F              B           1
                         00EE-00EF              2
                         0110-016F             60
                         01A0-01EF             50
        SFR0             0000-001F             20           1
        SFR1             0080-009F             20           1
        SFR2             0100-010F             10           1
        SFR3             0180-018F             10           1
        STRCODE          00E0-00E0              1           2
                         0800-0B66            367
                         1000-1FFF           1000
        STRING           00E0-00E0              1           2
                         0800-0B66            100
                         1000-1FFF            100

                                  Symbol Table

??___awdiv            cstackCOMMON 0074
??___awmod            cstackCOMMON 0074
??___wmul             cstackCOMMON 0074
??_actrow             cstackCOMMON 0074
??_clearlcd           cstackCOMMON 007A
??_cmd                cstackCOMMON 007A
??_dat                cstackCOMMON 007A
??_delay              cstackCOMMON 0072
??_getlogicseq        cstackBANK0  005C
??_initkeypad         cstackCOMMON 0070
??_initlcd            cstackCOMMON 007A
??_itoaa              cstackCOMMON 007C
??_main               cstackCOMMON 007E
??_resetout           cstackCOMMON 0070
??_scan               cstackCOMMON 0076
??_scroll             cstackBANK0  004A
??_setLCD             cstackCOMMON 0072
??_startswitch        cstackCOMMON 0078
??_strcat             cstackCOMMON 0071
??_strcmp             cstackCOMMON 0072
??_strcpy             cstackCOMMON 0071
??_write              cstackCOMMON 007A
?___awdiv             cstackCOMMON 0070
?___awmod             cstackCOMMON 0070
?___wmul              cstackCOMMON 0070
?_actrow              cstackCOMMON 0072
?_clearlcd            cstackCOMMON 0070
?_cmd                 cstackCOMMON 0078
?_dat                 cstackCOMMON 0078
?_delay               cstackCOMMON 0070
?_getlogicseq         cstackCOMMON 0070
?_initkeypad          cstackCOMMON 0070
?_initlcd             cstackCOMMON 0070
?_itoaa               cstackCOMMON 0079
?_main                cstackCOMMON 0070
?_resetout            cstackCOMMON 0070
?_scan                cstackCOMMON 0074
?_scroll              cstackBANK0  0048
?_setLCD              cstackCOMMON 0070
?_startswitch         cstackCOMMON 0070
?_strcat              cstackCOMMON 0070
?_strcmp              cstackCOMMON 0070
?_strcpy              cstackCOMMON 0070
?_write               cstackBANK0  0042
_PORTA                (abs)        0005
_PORTB                (abs)        0006
_RA5                  (abs)        002D
_RB0                  (abs)        0030
_RB1                  (abs)        0031
_RB2                  (abs)        0032
_RB3                  (abs)        0033
_RB6                  (abs)        0036
_RB7                  (abs)        0037
_RC0                  (abs)        0038
_RC1                  (abs)        0039
_RC2                  (abs)        003A
_RC3                  (abs)        003B
_RC4                  (abs)        003C
_RC5                  (abs)        003D
_RC7                  (abs)        003F
_RD0                  (abs)        0040
_RD1                  (abs)        0041
_RD2                  (abs)        0042
_RD3                  (abs)        0043
_RD4                  (abs)        0044
_RD5                  (abs)        0045
_RD6                  (abs)        0046
_RD7                  (abs)        0047
_TRISA                (abs)        0085
_TRISB                (abs)        0086
_TRISC                (abs)        0087
_TRISD                (abs)        0088
__Habs1               abs1         0000
__Hbank0              bank0        0000
__Hbank1              bank1        0000
__Hbank2              bank2        0000
__Hbank3              bank3        0000
__HbssBANK3           bssBANK3     0000
__Hcinit              cinit        0000
__Hclrtext            clrtext      0000
__Hcode               code         0000
__Hcommon             common       0000
__Hconfig             config       0000
__HcstackBANK0        cstackBANK0  0000
__HcstackBANK1        cstackBANK1  0000
__HcstackCOMMON       cstackCOMMON 0000
__HdataBANK0          dataBANK0    0000
__HdataBANK1          dataBANK1    0000
__Heeprom_data        eeprom_data  0000
__Hend_init           end_init     0003
__Hfunctab            functab      0000
__HidataBANK0         idataBANK0   0000
__HidataBANK1         idataBANK1   0000
__Hidloc              idloc        0000
__Hinit               init         0000
__Hinittext           inittext     0000
__Hintentry           intentry     0000
__Hmaintext           maintext     0000
__Hpowerup            powerup      0000
__Hram                ram          0000
__Hreset_vec          reset_vec    0000
__Hsfr0               sfr0         0000
__Hsfr1               sfr1         0000
__Hsfr2               sfr2         0000
__Hsfr3               sfr3         0000
__Hstrings            strings      0000
__Htext               text         0000
__Labs1               abs1         0000
__Lbank0              bank0        0000
__Lbank1              bank1        0000
__Lbank2              bank2        0000
__Lbank3              bank3        0000
__LbssBANK3           bssBANK3     0000
__Lcinit              cinit        0000
__Lclrtext            clrtext      0000
__Lcode               code         0000
__Lcommon             common       0000
__Lconfig             config       0000
__LcstackBANK0        cstackBANK0  0000
__LcstackBANK1        cstackBANK1  0000
__LcstackCOMMON       cstackCOMMON 0000
__LdataBANK0          dataBANK0    0000
__LdataBANK1          dataBANK1    0000
__Leeprom_data        eeprom_data  0000
__Lend_init           end_init     0000
__Lfunctab            functab      0000
__LidataBANK0         idataBANK0   0000
__LidataBANK1         idataBANK1   0000
__Lidloc              idloc        0000
__Linit               init         0000
__Linittext           inittext     0000
__Lintentry           intentry     0000
__Lmaintext           maintext     0000
__Lpowerup            powerup      0000
__Lram                ram          0000
__Lreset_vec          reset_vec    0000
__Lsfr0               sfr0         0000
__Lsfr1               sfr1         0000
__Lsfr2               sfr2         0000
__Lsfr3               sfr3         0000
__Lstrings            strings      0000
__Ltext               text         0000
__S0                  (abs)        1000
__S1                  (abs)        01A0
__S2                  (abs)        0000
___awdiv              text502      0E2F
___awdiv@counter      cstackCOMMON 0075
___awdiv@dividend     cstackCOMMON 0072
___awdiv@divisor      cstackCOMMON 0070
___awdiv@quotient     cstackCOMMON 0077
___awdiv@sign         cstackCOMMON 0076
___awmod              text501      0DC9
___awmod@counter      cstackCOMMON 0075
___awmod@dividend     cstackCOMMON 0072
___awmod@divisor      cstackCOMMON 0070
___awmod@sign         cstackCOMMON 0076
___wmul               text503      0C91
___wmul@multiplicand  cstackCOMMON 0072
___wmul@multiplier    cstackCOMMON 0070
___wmul@product       cstackCOMMON 0074
__end_of___awdiv      text502      0EA3
__end_of___awmod      text501      0E2F
__end_of___wmul       text503      0CBB
__end_of_actrow       text496      0D65
__end_of_clearlcd     text493      0B88
__end_of_cmd          text498      0C1B
__end_of_dat          text497      0C40
__end_of_delay        text506      0BAD
__end_of_getlogicseq  text490      0800
__end_of_initkeypad   text510      0B76
__end_of_initlcd      text495      0CEE
__end_of_itoaa        text499      02B9
__end_of_main         maintext     0BD6
__end_of_resetout     text504      0B6E
__end_of_scan         text494      01CE
__end_of_scroll       text491      1000
__end_of_setLCD       text505      03FD
__end_of_startswitch  text500      0F32
__end_of_strcat       text507      0C91
__end_of_strcmp       text509      0D27
__end_of_strcpy       text508      0BF6
__end_of_write        text492      0DC9
__pbssBANK3           bssBANK3     0190
__pcstackBANK0        cstackBANK0  0020
__pcstackBANK1        cstackBANK1  00A0
__pcstackCOMMON       cstackCOMMON 0070
__pdataBANK0          dataBANK0    0060
__pdataBANK1          dataBANK1    00DA
__pidataBANK0         idataBANK0   00E1
__pidataBANK1         idataBANK1   0BAD
__pmaintext           maintext     0BC1
__pstrings            strings      0003
__ptext490            text490      03FD
__ptext491            text491      0F32
__ptext492            text492      0D65
__ptext493            text493      0B7E
__ptext494            text494      00E6
__ptext495            text495      0CBB
__ptext496            text496      0D27
__ptext497            text497      0C1B
__ptext498            text498      0BF6
__ptext499            text499      01CE
__ptext500            text500      0EA3
__ptext501            text501      0DC9
__ptext502            text502      0E2F
__ptext503            text503      0C91
__ptext504            text504      0B67
__ptext505            text505      02B9
__ptext506            text506      0B99
__ptext507            text507      0C68
__ptext508            text508      0BD6
__ptext509            text509      0CEE
__ptext510            text510      0B6E
__ptext511            text511      0000
__size_of___awdiv     (abs)        0000
__size_of___awmod     (abs)        0000
__size_of___wmul      (abs)        0000
__size_of_actrow      (abs)        0000
__size_of_clearlcd    (abs)        0000
__size_of_cmd         (abs)        0000
__size_of_dat         (abs)        0000
__size_of_delay       (abs)        0000
__size_of_getlogicseq (abs)        0000
__size_of_initkeypad  (abs)        0000
__size_of_initlcd     (abs)        0000
__size_of_itoaa       (abs)        0000
__size_of_main        (abs)        0000
__size_of_resetout    (abs)        0000
__size_of_scan        (abs)        0000
__size_of_scroll      (abs)        0000
__size_of_setLCD      (abs)        0000
__size_of_startswitch (abs)        0000
__size_of_strcat      (abs)        0000
__size_of_strcmp      (abs)        0000
__size_of_strcpy      (abs)        0000
__size_of_write       (abs)        0000
_actrow               text496      0D27
_clearlcd             text493      0B7E
_cmd                  text498      0BF6
_dat                  text497      0C1B
_delay                text506      0B99
_exit                 init         0000
_getlogicseq          text490      03FD
_initkeypad           text510      0B6E
_initlcd              text495      0CBB
_itoaa                text499      01CE
_lo                   dataBANK0    0060
_logic_d1             dataBANK1    00DA
_logic_d2             dataBANK1    00DF
_logic_d3             dataBANK1    00E4
_logic_d4             dataBANK1    00E9
_main                 maintext     0BC1
_resetout             text504      0B67
_scan                 text494      00E6
_scroll               text491      0F32
_setLCD               text505      02B9
_startswitch          text500      0EA3
_strcat               text507      0C68
_strcmp               text509      0CEE
_strcpy               text508      0BD6
_write                text492      0D65
actrow@n              cstackCOMMON 0072
btemp                 (abs)        007E
clear_ram             clrtext      0B76
cmd@Command           cstackCOMMON 0078
dat@Command           cstackCOMMON 0078
delay@x               cstackCOMMON 0070
end_of_initialization cinit        0C64
getlogicseq@F1256     bssBANK3     0190
getlogicseq@bf        cstackBANK1  00C0
getlogicseq@ccount    cstackBANK1  00D6
getlogicseq@nf        cstackBANK1  00D2
getlogicseq@num       cstackBANK1  00D8
getlogicseq@snum      cstackBANK1  00C2
getlogicseq@str       cstackBANK1  00A0
getlogicseq@wf        cstackBANK1  00D4
init_fetch            inittext     0B88
init_ram              inittext     0B8C
intlevel0             functab      0000
intlevel1             functab      0000
intlevel2             functab      0000
intlevel3             functab      0000
intlevel4             functab      0000
intlevel5             functab      0000
itoaa@count           cstackBANK0  0020
itoaa@ptr             cstackCOMMON 007B
itoaa@temp            cstackBANK0  0022
itoaa@value           cstackCOMMON 0079
reset_vec             reset_vec    0000
scroll@en             cstackBANK0  004F
scroll@endat          cstackBANK0  0053
scroll@i              cstackBANK0  005A
scroll@len            cstackBANK0  0058
scroll@loopn          cstackBANK0  0055
scroll@loops          cstackBANK0  0048
scroll@st             cstackBANK0  004D
scroll@startat        cstackBANK0  0051
scroll@str            cstackBANK0  0057
setLCD@i              cstackBANK0  0040
setLCD@number         cstackCOMMON 0070
setLCD@size           strings      0013
setLCD@vbool          cstackBANK0  0020
start                 init         0000
start_initialization  cinit        0C40
startswitch@dev       cstackCOMMON 0079
strcat@cp             cstackCOMMON 0073
strcat@from           cstackCOMMON 0070
strcat@to             cstackCOMMON 0072
strcmp@r              cstackCOMMON 0076
strcmp@s1             cstackCOMMON 0077
strcmp@s2             cstackCOMMON 0070
strcpy@cp             cstackCOMMON 0073
strcpy@from           cstackCOMMON 0070
strcpy@to             cstackCOMMON 0072
write@erase           cstackBANK0  0046
write@i               cstackCOMMON 007C
write@line            cstackBANK0  0044
write@str             cstackBANK0  0042
wtemp0                (abs)        007E
