

HI-TECH Software PIC LITE Macro Assembler V9.81 build 7503 
                                                                                               Thu Jul 27 11:24:00 2017

HI-TECH Software Omniscient Code Generator (Lite mode) build 7503
     1  0000                     opt subtitle "HI-TECH Software Omniscient Code Generator (Lite mode) build 7503"
     2                           
     3                           opt pagewidth 120
     4                           
     5                           	opt lm
     6                           
     7                           	processor	16F877
     8                           clrc	macro
     9                           	bcf	3,0
    10  0000                     	endm
    11                           clrz	macro
    12                           	bcf	3,2
    13  0000                     	endm
    14                           setc	macro
    15                           	bsf	3,0
    16  0000                     	endm
    17                           setz	macro
    18                           	bsf	3,2
    19  0000                     	endm
    20                           skipc	macro
    21                           	btfss	3,0
    22  0000                     	endm
    23                           skipz	macro
    24                           	btfss	3,2
    25  0000                     	endm
    26                           skipnc	macro
    27                           	btfsc	3,0
    28  0000                     	endm
    29                           skipnz	macro
    30                           	btfsc	3,2
    31  0000                     	endm
    32  0000                     indf	equ	0
    33  0000                     indf0	equ	0
    34  0002                     pc	equ	2
    35  0002                     pcl	equ	2
    36  0003                     status	equ	3
    37  0004                     fsr	equ	4
    38  0004                     fsr0	equ	4
    39  0001                     c	equ	1
    40  0000                     z	equ	0
    41  000A                     pclath	equ	10
    42                           	FNCALL	_main,_initlcd
    43                           	FNCALL	_main,_initkeypad
    44                           	FNCALL	_main,_getlogicseq
    45                           	FNCALL	_getlogicseq,_scroll
    46                           	FNCALL	_getlogicseq,_strcpy
    47                           	FNCALL	_getlogicseq,_write
    48                           	FNCALL	_getlogicseq,_scan
    49                           	FNCALL	_getlogicseq,_itoaa
    50                           	FNCALL	_getlogicseq,_strcat
    51                           	FNCALL	_scroll,_write
    52                           	FNCALL	_scroll,_delay
    53                           	FNCALL	_scroll,_cmd
    54                           	FNCALL	_write,_clearlcd
    55                           	FNCALL	_write,_cmd
    56                           	FNCALL	_write,_dat
    57                           	FNCALL	_clearlcd,_cmd
    58                           	FNCALL	_scan,_actrow
    59                           	FNCALL	_initlcd,_cmd
    60                           	FNCALL	_actrow,_resetout
    61                           	FNCALL	_actrow,_delay
    62                           	FNCALL	_dat,_setLCD
    63                           	FNCALL	_dat,_delay
    64                           	FNCALL	_cmd,_setLCD
    65                           	FNCALL	_cmd,_delay
    66                           	FNCALL	_itoaa,___wmul
    67                           	FNCALL	_itoaa,___awdiv
    68                           	FNCALL	_itoaa,___awmod
    69                           	FNROOT	_main
    70                           	global	getlogicseq@F1246
    71                           	global	getlogicseq@F1248
    72                           	global	getlogicseq@F1250
    73                           	global	getlogicseq@F1252
    74                           psect	idataBANK0,class=CODE,space=0,delta=2
    75                           global __pidataBANK0
    76  0C66                     __pidataBANK0:
    77                           	file	"C:\PIC\PROJECTS\Training_Project\Code\LCD\lcd1.c"
    78                           	line	106
    79                           
    80                           ;initializer for getlogicseq@F1246
    81  0C66  3431               	retlw	031h
    82  0C67  3430               	retlw	030h
    83  0C68  3430               	retlw	030h
    84  0C69  3431               	retlw	031h
    85  0C6A  3400               	retlw	0
    86                           	line	107
    87                           
    88                           ;initializer for getlogicseq@F1248
    89  0C6B  3431               	retlw	031h
    90  0C6C  3430               	retlw	030h
    91  0C6D  3431               	retlw	031h
    92  0C6E  3431               	retlw	031h
    93  0C6F  3400               	retlw	0
    94                           	line	108
    95                           
    96                           ;initializer for getlogicseq@F1250
    97  0C70  3431               	retlw	031h
    98  0C71  3431               	retlw	031h
    99  0C72  3431               	retlw	031h
   100  0C73  3431               	retlw	031h
   101  0C74  3400               	retlw	0
   102                           psect	idataBANK3,class=CODE,space=0,delta=2
   103                           global __pidataBANK3
   104  0C40                     __pidataBANK3:
   105                           	line	109
   106                           
   107                           ;initializer for getlogicseq@F1252
   108  0C40  3431               	retlw	031h
   109  0C41  3430               	retlw	030h
   110  0C42  3431               	retlw	031h
   111  0C43  3430               	retlw	030h
   112  0C44  3400               	retlw	0
   113                           	global	setLCD@size
   114                           psect	strings,class=STRING,delta=2
   115                           global __pstrings
   116  0003                     __pstrings:
   117                           ;	global	stringdir,stringtab,__stringbase
   118  0003                     stringtab:
   119                           ;	String table - string pointers are 1 byte each
   120  0003  1BFF               	btfsc	(btemp+1),7
   121  0004  280D               	ljmp	stringcode
   122  0005  1383               	bcf	status,7
   123  0006  187F               	btfsc	(btemp+1),0
   124  0007  1783               	bsf	status,7
   125  0008  0800               	movf	indf,w
   126  0009  0A84               	incf fsr
   127  000A  1903               skipnz
   128  000B  0AFF               incf btemp+1
   129  000C  0008               	return
   130  000D                     stringcode:stringdir:
      + 000D                     stringdir:	
   131  000D  3000               movlw high(stringdir)
   132  000E  008A               movwf pclath
   133  000F  0804               movf fsr,w
   134  0010  0A84               incf fsr
   135  0011  0782               	addwf pc
   136  0012                     __stringbase:
   137  0012  3400               	retlw	0
   138                           psect	strings
   139                           	file	"C:\PIC\PROJECTS\Training_Project\Code\LCD\lcd1.c"
   140                           	line	377
   141  0013                     setLCD@size:
   142  0013  3410               	retlw	010h
   143  0014  3400               	retlw	0
   144                           
   145                           	global	setLCD@size
   146                           	global	getlogicseq@F1255
   147                           	global	_PORTB
   148  0006                     _PORTB	set	6
   149                           	global	_RB0
   150  0030                     _RB0	set	48
   151                           	global	_RB1
   152  0031                     _RB1	set	49
   153                           	global	_RB2
   154  0032                     _RB2	set	50
   155                           	global	_RB3
   156  0033                     _RB3	set	51
   157                           	global	_RB6
   158  0036                     _RB6	set	54
   159                           	global	_RB7
   160  0037                     _RB7	set	55
   161                           	global	_RC0
   162  0038                     _RC0	set	56
   163                           	global	_RC1
   164  0039                     _RC1	set	57
   165                           	global	_RC2
   166  003A                     _RC2	set	58
   167                           	global	_RC3
   168  003B                     _RC3	set	59
   169                           	global	_RD0
   170  0040                     _RD0	set	64
   171                           	global	_RD1
   172  0041                     _RD1	set	65
   173                           	global	_RD2
   174  0042                     _RD2	set	66
   175                           	global	_RD3
   176  0043                     _RD3	set	67
   177                           	global	_RD4
   178  0044                     _RD4	set	68
   179                           	global	_RD5
   180  0045                     _RD5	set	69
   181                           	global	_RD6
   182  0046                     _RD6	set	70
   183                           	global	_RD7
   184  0047                     _RD7	set	71
   185                           	global	_TRISB
   186  0086                     _TRISB	set	134
   187                           	global	_TRISC
   188  0087                     _TRISC	set	135
   189                           	global	_TRISD
   190  0088                     _TRISD	set	136
   191                           	
   192  0015                     STR_1:	
   193  0015  3457               	retlw	87	;'W'
   194  0016  3445               	retlw	69	;'E'
   195  0017  344C               	retlw	76	;'L'
   196  0018  3443               	retlw	67	;'C'
   197  0019  344F               	retlw	79	;'O'
   198  001A  344D               	retlw	77	;'M'
   199  001B  3445               	retlw	69	;'E'
   200  001C  3420               	retlw	32	;' '
   201  001D  3421               	retlw	33	;'!'
   202  001E  3420               	retlw	32	;' '
   203  001F  3454               	retlw	84	;'T'
   204  0020  344F               	retlw	79	;'O'
   205  0021  3420               	retlw	32	;' '
   206  0022  3450               	retlw	80	;'P'
   207  0023  3452               	retlw	82	;'R'
   208  0024  344F               	retlw	79	;'O'
   209  0025  3447               	retlw	71	;'G'
   210  0026  3452               	retlw	82	;'R'
   211  0027  3441               	retlw	65	;'A'
   212  0028  344D               	retlw	77	;'M'
   213  0029  3441               	retlw	65	;'A'
   214  002A  3442               	retlw	66	;'B'
   215  002B  344C               	retlw	76	;'L'
   216  002C  3445               	retlw	69	;'E'
   217  002D  3420               	retlw	32	;' '
   218  002E  3448               	retlw	72	;'H'
   219  002F  344F               	retlw	79	;'O'
   220  0030  344D               	retlw	77	;'M'
   221  0031  3445               	retlw	69	;'E'
   222  0032  3420               	retlw	32	;' '
   223  0033  3441               	retlw	65	;'A'
   224  0034  3455               	retlw	85	;'U'
   225  0035  3454               	retlw	84	;'T'
   226  0036  344D               	retlw	77	;'M'
   227  0037  3441               	retlw	65	;'A'
   228  0038  3454               	retlw	84	;'T'
   229  0039  344E               	retlw	78	;'N'
   230  003A  3400               	retlw	0
   231                           psect	strings
   232                           	
   233  003B                     STR_2:	
   234  003B  3445               	retlw	69	;'E'
   235  003C  346E               	retlw	110	;'n'
   236  003D  3474               	retlw	116	;'t'
   237  003E  3465               	retlw	101	;'e'
   238  003F  3472               	retlw	114	;'r'
   239  0040  3420               	retlw	32	;' '
   240  0041  344C               	retlw	76	;'L'
   241  0042  346F               	retlw	111	;'o'
   242  0043  3467               	retlw	103	;'g'
   243  0044  3469               	retlw	105	;'i'
   244  0045  3463               	retlw	99	;'c'
   245  0046  3420               	retlw	32	;' '
   246  0047  3444               	retlw	68	;'D'
   247  0048  3445               	retlw	69	;'E'
   248  0049  3456               	retlw	86	;'V'
   249  004A  3431               	retlw	49	;'1'
   250  004B  343A               	retlw	58	;':'
   251  004C  3420               	retlw	32	;' '
   252  004D  3420               	retlw	32	;' '
   253  004E  3400               	retlw	0
   254                           psect	strings
   255                           	
   256  004F                     STR_5:	
   257  004F  3445               	retlw	69	;'E'
   258  0050  346E               	retlw	110	;'n'
   259  0051  3474               	retlw	116	;'t'
   260  0052  3465               	retlw	101	;'e'
   261  0053  3472               	retlw	114	;'r'
   262  0054  3420               	retlw	32	;' '
   263  0055  344C               	retlw	76	;'L'
   264  0056  346F               	retlw	111	;'o'
   265  0057  3467               	retlw	103	;'g'
   266  0058  3469               	retlw	105	;'i'
   267  0059  3463               	retlw	99	;'c'
   268  005A  3420               	retlw	32	;' '
   269  005B  3444               	retlw	68	;'D'
   270  005C  3445               	retlw	69	;'E'
   271  005D  3456               	retlw	86	;'V'
   272  005E  3432               	retlw	50	;'2'
   273  005F  343A               	retlw	58	;':'
   274  0060  3420               	retlw	32	;' '
   275  0061  3420               	retlw	32	;' '
   276  0062  3400               	retlw	0
   277                           psect	strings
   278                           	
   279  0063                     STR_8:	
   280  0063  3445               	retlw	69	;'E'
   281  0064  346E               	retlw	110	;'n'
   282  0065  3474               	retlw	116	;'t'
   283  0066  3465               	retlw	101	;'e'
   284  0067  3472               	retlw	114	;'r'
   285  0068  3420               	retlw	32	;' '
   286  0069  344C               	retlw	76	;'L'
   287  006A  346F               	retlw	111	;'o'
   288  006B  3467               	retlw	103	;'g'
   289  006C  3469               	retlw	105	;'i'
   290  006D  3463               	retlw	99	;'c'
   291  006E  3420               	retlw	32	;' '
   292  006F  3444               	retlw	68	;'D'
   293  0070  3445               	retlw	69	;'E'
   294  0071  3456               	retlw	86	;'V'
   295  0072  3433               	retlw	51	;'3'
   296  0073  343A               	retlw	58	;':'
   297  0074  3420               	retlw	32	;' '
   298  0075  3420               	retlw	32	;' '
   299  0076  3400               	retlw	0
   300                           psect	strings
   301                           	
   302  0077                     STR_11:	
   303  0077  3445               	retlw	69	;'E'
   304  0078  346E               	retlw	110	;'n'
   305  0079  3474               	retlw	116	;'t'
   306  007A  3465               	retlw	101	;'e'
   307  007B  3472               	retlw	114	;'r'
   308  007C  3420               	retlw	32	;' '
   309  007D  344C               	retlw	76	;'L'
   310  007E  346F               	retlw	111	;'o'
   311  007F  3467               	retlw	103	;'g'
   312  0080  3469               	retlw	105	;'i'
   313  0081  3463               	retlw	99	;'c'
   314  0082  3420               	retlw	32	;' '
   315  0083  3444               	retlw	68	;'D'
   316  0084  3445               	retlw	69	;'E'
   317  0085  3456               	retlw	86	;'V'
   318  0086  3434               	retlw	52	;'4'
   319  0087  343A               	retlw	58	;':'
   320  0088  3420               	retlw	32	;' '
   321  0089  3420               	retlw	32	;' '
   322  008A  3400               	retlw	0
   323                           psect	strings
   324                           	
   325  008B                     STR_4:	
   326  008B  342D               	retlw	45	;'-'
   327  008C  342D               	retlw	45	;'-'
   328  008D  342D               	retlw	45	;'-'
   329  008E  342D               	retlw	45	;'-'
   330  008F  3400               	retlw	0
   331                           psect	strings
   332  008B                     STR_7	equ	STR_4+0
   333  008B                     STR_10	equ	STR_4+0
   334  008B                     STR_13	equ	STR_4+0
   335  004E                     STR_3	equ	STR_2+19
   336  004E                     STR_6	equ	STR_2+19
   337  004E                     STR_9	equ	STR_2+19
   338  004E                     STR_12	equ	STR_2+19
   339                           	file	"prev0.as"
   340                           	line	#
   341                           psect cinit,class=CODE,delta=2
   342                           global start_initialization
   343  0D08                     start_initialization:
   344                           
   345                           psect	dataBANK0,class=BANK0,space=1
   346                           global __pdataBANK0
   347  0060                     __pdataBANK0:
   348                           	file	"C:\PIC\PROJECTS\Training_Project\Code\LCD\lcd1.c"
   349                           	line	106
   350  0060                     getlogicseq@F1246:
   351  0060                            ds      5
   352                           
   353                           psect	dataBANK0
   354                           	file	"C:\PIC\PROJECTS\Training_Project\Code\LCD\lcd1.c"
   355                           	line	107
   356  0065                     getlogicseq@F1248:
   357  0065                            ds      5
   358                           
   359                           psect	dataBANK0
   360                           	file	"C:\PIC\PROJECTS\Training_Project\Code\LCD\lcd1.c"
   361                           	line	108
   362  006A                     getlogicseq@F1250:
   363  006A                            ds      5
   364                           
   365                           psect	bssBANK3,class=BANK3,space=1
   366                           global __pbssBANK3
   367  0190                     __pbssBANK3:
   368  0190                     getlogicseq@F1255:
   369  0190                            ds      16
   370                           
   371                           psect	dataBANK3,class=BANK3,space=1
   372                           global __pdataBANK3
   373  01A0                     __pdataBANK3:
   374                           	file	"C:\PIC\PROJECTS\Training_Project\Code\LCD\lcd1.c"
   375                           	line	109
   376  01A0                     getlogicseq@F1252:
   377  01A0                            ds      5
   378                           
   379                           psect clrtext,class=CODE,delta=2
   380                           global clear_ram
   381                           ;	Called with FSR containing the base address, and
   382                           ;	W with the last address+1
   383  0C54                     clear_ram:
   384  0C54  0064               	clrwdt			;clear the watchdog before getting into this loop
   385  0C55                     clrloop:
   386  0C55  0180               	clrf	indf		;clear RAM location pointed to by FSR
   387  0C56  0A84               	incf	fsr,f		;increment pointer
   388  0C57  0604               	xorwf	fsr,w		;XOR with final address
   389  0C58  1903               	btfsc	status,2	;have we reached the end yet?
   390  0C59  3400               	retlw	0		;all done for this memory range, return
   391  0C5A  0604               	xorwf	fsr,w		;XOR again to restore value
   392  0C5B  2C55               	goto	clrloop		;do the next byte
   393                           
   394                           ; Clear objects allocated to BANK3
   395                           psect cinit,class=CODE,delta=2
   396  0D08  1783               	bsf	status, 7	;select IRP bank2
   397  0D09  3090               	movlw	low(__pbssBANK3)
   398  0D0A  0084               	movwf	fsr
   399  0D0B  30A0               	movlw	low((__pbssBANK3)+010h)
   400  0D0C  120A  158A  2454   	fcall	clear_ram
              120A  158A         
   401                           global btemp
   402                           psect inittext,class=CODE,delta=2
   403                           global init_fetch,btemp
   404                           ;	Called with low address in FSR and high address in W
   405  0092                     init_fetch:
   406  0092  087E               	movf btemp,w
   407  0093  008A               	movwf pclath
   408  0094  087F               	movf btemp+1,w
   409  0095  0082               	movwf pc
   410                           global init_ram
   411                           ;Called with:
   412                           ;	high address of idata address in btemp 
   413                           ;	low address of idata address in btemp+1 
   414                           ;	low address of data in FSR
   415                           ;	high address + 1 of data in btemp-1
   416  0096                     init_ram:
   417  0096  2092  120A  118A   	fcall init_fetch
   418  0099  0080               	movwf indf,f
   419  009A  0A84               	incf fsr,f
   420  009B  0804               	movf fsr,w
   421  009C  067D               	xorwf btemp-1,w
   422  009D  1903               	btfsc status,2
   423  009E  3400               	retlw 0
   424  009F  0AFF               	incf btemp+1,f
   425  00A0  1903               	btfsc status,2
   426  00A1  0AFE               	incf btemp,f
   427  00A2  2896               	goto init_ram
   428                           ; Initialize objects allocated to BANK3
   429                           psect cinit,class=CODE,delta=2
   430                           global init_ram, __pidataBANK3
   431  0D11  30A5               	movlw low(__pdataBANK3+5)
   432  0D12  00FD               	movwf btemp-1,f
   433  0D13  300C               	movlw high(__pidataBANK3)
   434  0D14  00FE               	movwf btemp,f
   435  0D15  3040               	movlw low(__pidataBANK3)
   436  0D16  00FF               	movwf btemp+1,f
   437  0D17  30A0               	movlw low(__pdataBANK3)
   438  0D18  0084               	movwf fsr,f
   439  0D19  120A  118A  2096   	fcall init_ram
              120A  158A         
   440                           ; Initialize objects allocated to BANK0
   441                           psect cinit,class=CODE,delta=2
   442                           global init_ram, __pidataBANK0
   443  0D1E  1383               	bcf	status, 7	;select IRP bank0
   444  0D1F  306F               	movlw low(__pdataBANK0+15)
   445  0D20  00FD               	movwf btemp-1,f
   446  0D21  300C               	movlw high(__pidataBANK0)
   447  0D22  00FE               	movwf btemp,f
   448  0D23  3066               	movlw low(__pidataBANK0)
   449  0D24  00FF               	movwf btemp+1,f
   450  0D25  3060               	movlw low(__pdataBANK0)
   451  0D26  0084               	movwf fsr,f
   452  0D27  120A  118A  2096   	fcall init_ram
              120A  158A         
   453                           psect cinit,class=CODE,delta=2
   454                           global end_of_initialization
   455                           
   456                           ;End of C runtime variable initialization code
   457                           
   458  0D2C                     end_of_initialization:
   459  0D2C  0183               clrf status
   460  0D2D  120A  158A  2C89   ljmp _main	;jump to C main() function
   461                           psect	cstackBANK1,class=BANK1,space=1
   462                           global __pcstackBANK1
   463  00A0                     __pcstackBANK1:
   464                           	global	getlogicseq@str
   465  00A0                     getlogicseq@str:	; 32 bytes @ 0x0
   466  00A0                     	ds	32
   467                           	global	getlogicseq@bf
   468  00C0                     getlogicseq@bf:	; 2 bytes @ 0x20
   469  00C0                     	ds	2
   470                           	global	getlogicseq@snum
   471  00C2                     getlogicseq@snum:	; 16 bytes @ 0x22
   472  00C2                     	ds	16
   473                           	global	getlogicseq@logic_d1
   474  00D2                     getlogicseq@logic_d1:	; 5 bytes @ 0x32
   475  00D2                     	ds	5
   476                           	global	getlogicseq@logic_d2
   477  00D7                     getlogicseq@logic_d2:	; 5 bytes @ 0x37
   478  00D7                     	ds	5
   479                           	global	getlogicseq@logic_d3
   480  00DC                     getlogicseq@logic_d3:	; 5 bytes @ 0x3C
   481  00DC                     	ds	5
   482                           	global	getlogicseq@logic_d4
   483  00E1                     getlogicseq@logic_d4:	; 5 bytes @ 0x41
   484  00E1                     	ds	5
   485                           	global	getlogicseq@nf
   486  00E6                     getlogicseq@nf:	; 2 bytes @ 0x46
   487  00E6                     	ds	2
   488                           	global	getlogicseq@wf
   489  00E8                     getlogicseq@wf:	; 2 bytes @ 0x48
   490  00E8                     	ds	2
   491                           	global	getlogicseq@ccount
   492  00EA                     getlogicseq@ccount:	; 2 bytes @ 0x4A
   493  00EA                     	ds	2
   494                           	global	getlogicseq@num
   495  00EC                     getlogicseq@num:	; 2 bytes @ 0x4C
   496  00EC                     	ds	2
   497                           psect	cstackCOMMON,class=COMMON,space=1
   498                           global __pcstackCOMMON
   499  0070                     __pcstackCOMMON:
   500                           	global	?_initlcd
   501  0070                     ?_initlcd:	; 0 bytes @ 0x0
   502                           	global	?_initkeypad
   503  0070                     ?_initkeypad:	; 0 bytes @ 0x0
   504                           	global	??_initkeypad
   505  0070                     ??_initkeypad:	; 0 bytes @ 0x0
   506                           	global	?_getlogicseq
   507  0070                     ?_getlogicseq:	; 0 bytes @ 0x0
   508                           	global	?_setLCD
   509  0070                     ?_setLCD:	; 0 bytes @ 0x0
   510                           	global	?_delay
   511  0070                     ?_delay:	; 0 bytes @ 0x0
   512                           	global	?_clearlcd
   513  0070                     ?_clearlcd:	; 0 bytes @ 0x0
   514                           	global	?_resetout
   515  0070                     ?_resetout:	; 0 bytes @ 0x0
   516                           	global	??_resetout
   517  0070                     ??_resetout:	; 0 bytes @ 0x0
   518                           	global	?_strcpy
   519  0070                     ?_strcpy:	; 1 bytes @ 0x0
   520                           	global	?_strcat
   521  0070                     ?_strcat:	; 1 bytes @ 0x0
   522                           	global	?_main
   523  0070                     ?_main:	; 2 bytes @ 0x0
   524                           	global	?___wmul
   525  0070                     ?___wmul:	; 2 bytes @ 0x0
   526                           	global	?___awdiv
   527  0070                     ?___awdiv:	; 2 bytes @ 0x0
   528                           	global	?___awmod
   529  0070                     ?___awmod:	; 2 bytes @ 0x0
   530                           	global	strcat@from
   531  0070                     strcat@from:	; 1 bytes @ 0x0
   532                           	global	strcpy@from
   533  0070                     strcpy@from:	; 1 bytes @ 0x0
   534                           	global	delay@x
   535  0070                     delay@x:	; 2 bytes @ 0x0
   536                           	global	setLCD@number
   537  0070                     setLCD@number:	; 2 bytes @ 0x0
   538                           	global	___wmul@multiplier
   539  0070                     ___wmul@multiplier:	; 2 bytes @ 0x0
   540                           	global	___awdiv@divisor
   541  0070                     ___awdiv@divisor:	; 2 bytes @ 0x0
   542                           	global	___awmod@divisor
   543  0070                     ___awmod@divisor:	; 2 bytes @ 0x0
   544  0070                     	ds	1
   545                           	global	??_strcpy
   546  0071                     ??_strcpy:	; 0 bytes @ 0x1
   547                           	global	??_strcat
   548  0071                     ??_strcat:	; 0 bytes @ 0x1
   549  0071                     	ds	1
   550                           	global	??_setLCD
   551  0072                     ??_setLCD:	; 0 bytes @ 0x2
   552                           	global	?_actrow
   553  0072                     ?_actrow:	; 0 bytes @ 0x2
   554                           	global	??_delay
   555  0072                     ??_delay:	; 0 bytes @ 0x2
   556                           	global	strcat@to
   557  0072                     strcat@to:	; 1 bytes @ 0x2
   558                           	global	strcpy@to
   559  0072                     strcpy@to:	; 1 bytes @ 0x2
   560                           	global	actrow@n
   561  0072                     actrow@n:	; 2 bytes @ 0x2
   562                           	global	___wmul@multiplicand
   563  0072                     ___wmul@multiplicand:	; 2 bytes @ 0x2
   564                           	global	___awdiv@dividend
   565  0072                     ___awdiv@dividend:	; 2 bytes @ 0x2
   566                           	global	___awmod@dividend
   567  0072                     ___awmod@dividend:	; 2 bytes @ 0x2
   568  0072                     	ds	1
   569                           	global	strcat@cp
   570  0073                     strcat@cp:	; 1 bytes @ 0x3
   571                           	global	strcpy@cp
   572  0073                     strcpy@cp:	; 1 bytes @ 0x3
   573  0073                     	ds	1
   574                           	global	??_actrow
   575  0074                     ??_actrow:	; 0 bytes @ 0x4
   576                           	global	??___wmul
   577  0074                     ??___wmul:	; 0 bytes @ 0x4
   578                           	global	??___awdiv
   579  0074                     ??___awdiv:	; 0 bytes @ 0x4
   580                           	global	??___awmod
   581  0074                     ??___awmod:	; 0 bytes @ 0x4
   582                           	global	?_scan
   583  0074                     ?_scan:	; 2 bytes @ 0x4
   584                           	global	___wmul@product
   585  0074                     ___wmul@product:	; 2 bytes @ 0x4
   586  0074                     	ds	1
   587                           	global	___awdiv@counter
   588  0075                     ___awdiv@counter:	; 1 bytes @ 0x5
   589                           	global	___awmod@counter
   590  0075                     ___awmod@counter:	; 1 bytes @ 0x5
   591  0075                     	ds	1
   592                           	global	??_scan
   593  0076                     ??_scan:	; 0 bytes @ 0x6
   594                           	global	___awdiv@sign
   595  0076                     ___awdiv@sign:	; 1 bytes @ 0x6
   596                           	global	___awmod@sign
   597  0076                     ___awmod@sign:	; 1 bytes @ 0x6
   598  0076                     	ds	1
   599                           	global	___awdiv@quotient
   600  0077                     ___awdiv@quotient:	; 2 bytes @ 0x7
   601  0077                     	ds	1
   602                           	global	?_cmd
   603  0078                     ?_cmd:	; 0 bytes @ 0x8
   604                           	global	?_dat
   605  0078                     ?_dat:	; 0 bytes @ 0x8
   606                           	global	cmd@Command
   607  0078                     cmd@Command:	; 2 bytes @ 0x8
   608                           	global	dat@Command
   609  0078                     dat@Command:	; 2 bytes @ 0x8
   610  0078                     	ds	1
   611                           	global	?_itoaa
   612  0079                     ?_itoaa:	; 2 bytes @ 0x9
   613                           	global	itoaa@value
   614  0079                     itoaa@value:	; 2 bytes @ 0x9
   615  0079                     	ds	1
   616                           	global	??_initlcd
   617  007A                     ??_initlcd:	; 0 bytes @ 0xA
   618                           	global	??_write
   619  007A                     ??_write:	; 0 bytes @ 0xA
   620                           	global	??_cmd
   621  007A                     ??_cmd:	; 0 bytes @ 0xA
   622                           	global	??_clearlcd
   623  007A                     ??_clearlcd:	; 0 bytes @ 0xA
   624                           	global	??_dat
   625  007A                     ??_dat:	; 0 bytes @ 0xA
   626  007A                     	ds	1
   627                           	global	itoaa@ptr
   628  007B                     itoaa@ptr:	; 1 bytes @ 0xB
   629  007B                     	ds	1
   630                           	global	??_itoaa
   631  007C                     ??_itoaa:	; 0 bytes @ 0xC
   632                           	global	write@i
   633  007C                     write@i:	; 2 bytes @ 0xC
   634  007C                     	ds	2
   635                           	global	??_main
   636  007E                     ??_main:	; 0 bytes @ 0xE
   637                           psect	cstackBANK0,class=BANK0,space=1
   638                           global __pcstackBANK0
   639  0020                     __pcstackBANK0:
   640                           	global	itoaa@count
   641  0020                     itoaa@count:	; 2 bytes @ 0x0
   642                           	global	setLCD@vbool
   643  0020                     setLCD@vbool:	; 32 bytes @ 0x0
   644  0020                     	ds	2
   645                           	global	itoaa@temp
   646  0022                     itoaa@temp:	; 2 bytes @ 0x2
   647  0022                     	ds	30
   648                           	global	setLCD@i
   649  0040                     setLCD@i:	; 2 bytes @ 0x20
   650  0040                     	ds	2
   651                           	global	?_write
   652  0042                     ?_write:	; 0 bytes @ 0x22
   653                           	global	write@str
   654  0042                     write@str:	; 2 bytes @ 0x22
   655  0042                     	ds	2
   656                           	global	write@line
   657  0044                     write@line:	; 2 bytes @ 0x24
   658  0044                     	ds	2
   659                           	global	write@erase
   660  0046                     write@erase:	; 2 bytes @ 0x26
   661  0046                     	ds	2
   662                           	global	?_scroll
   663  0048                     ?_scroll:	; 0 bytes @ 0x28
   664                           	global	scroll@loops
   665  0048                     scroll@loops:	; 2 bytes @ 0x28
   666  0048                     	ds	2
   667                           	global	??_scroll
   668  004A                     ??_scroll:	; 0 bytes @ 0x2A
   669  004A                     	ds	3
   670                           	global	scroll@st
   671  004D                     scroll@st:	; 2 bytes @ 0x2D
   672  004D                     	ds	2
   673                           	global	scroll@en
   674  004F                     scroll@en:	; 2 bytes @ 0x2F
   675  004F                     	ds	2
   676                           	global	scroll@startat
   677  0051                     scroll@startat:	; 2 bytes @ 0x31
   678  0051                     	ds	2
   679                           	global	scroll@endat
   680  0053                     scroll@endat:	; 2 bytes @ 0x33
   681  0053                     	ds	2
   682                           	global	scroll@loopn
   683  0055                     scroll@loopn:	; 2 bytes @ 0x35
   684  0055                     	ds	2
   685                           	global	scroll@str
   686  0057                     scroll@str:	; 1 bytes @ 0x37
   687  0057                     	ds	1
   688                           	global	scroll@len
   689  0058                     scroll@len:	; 2 bytes @ 0x38
   690  0058                     	ds	2
   691                           	global	scroll@i
   692  005A                     scroll@i:	; 2 bytes @ 0x3A
   693  005A                     	ds	2
   694                           	global	??_getlogicseq
   695  005C                     ??_getlogicseq:	; 0 bytes @ 0x3C
   696  005C                     	ds	4
   697 ;;Data sizes: Strings 123, constant 2, data 20, bss 16, persistent 0 stack 0
   698 ;;Auto spaces:   Size  Autos    Used
   699 ;; COMMON          14     14      14
   700 ;; BANK0           80     64      79
   701 ;; BANK1           80     78      78
   702 ;; BANK3           96      0      21
   703 ;; BANK2           96      0       0
   704                           
   705 ;;
   706 ;; Pointer list with targets:
   707                           
   708 ;; ?___awmod	int  size(1) Largest target is 0
   709 ;;
   710 ;; ?___awdiv	int  size(1) Largest target is 0
   711 ;;
   712 ;; ?___wmul	unsigned int  size(1) Largest target is 0
   713 ;;
   714 ;; ?_strcat	PTR unsigned char  size(1) Largest target is 5
   715 ;;		 -> getlogicseq@logic_d4(BANK1[5]), getlogicseq@logic_d3(BANK1[5]), getlogicseq@logic_d2(BANK1[5]), getlogicseq@logi
       c_d1(BANK1[5]), 
   716 ;;
   717 ;; ?_itoaa	int  size(1) Largest target is 0
   718 ;;
   719 ;; ?_strcpy	PTR unsigned char  size(1) Largest target is 32
   720 ;;		 -> getlogicseq@str(BANK1[32]), getlogicseq@logic_d4(BANK1[5]), getlogicseq@logic_d3(BANK1[5]), getlogicseq@logic_d2
       (BANK1[5]), 
   721 ;;		 -> getlogicseq@logic_d1(BANK1[5]), 
   722 ;;
   723 ;; strcpy@from	PTR const unsigned char  size(1) Largest target is 20
   724 ;;		 -> STR_12(CODE[1]), STR_11(CODE[20]), STR_9(CODE[1]), STR_8(CODE[20]), 
   725 ;;		 -> STR_6(CODE[1]), STR_5(CODE[20]), STR_3(CODE[1]), STR_2(CODE[20]), 
   726 ;;
   727 ;; strcpy@to	PTR unsigned char  size(1) Largest target is 32
   728 ;;		 -> getlogicseq@str(BANK1[32]), getlogicseq@logic_d4(BANK1[5]), getlogicseq@logic_d3(BANK1[5]), getlogicseq@logic_d2
       (BANK1[5]), 
   729 ;;		 -> getlogicseq@logic_d1(BANK1[5]), 
   730 ;;
   731 ;; strcpy@cp	PTR unsigned char  size(1) Largest target is 32
   732 ;;		 -> getlogicseq@str(BANK1[32]), getlogicseq@logic_d4(BANK1[5]), getlogicseq@logic_d3(BANK1[5]), getlogicseq@logic_d2
       (BANK1[5]), 
   733 ;;		 -> getlogicseq@logic_d1(BANK1[5]), 
   734 ;;
   735 ;; strcat@from	PTR const unsigned char  size(1) Largest target is 16
   736 ;;		 -> getlogicseq@snum(BANK1[16]), 
   737 ;;
   738 ;; strcat@to	PTR unsigned char  size(1) Largest target is 5
   739 ;;		 -> getlogicseq@logic_d4(BANK1[5]), getlogicseq@logic_d3(BANK1[5]), getlogicseq@logic_d2(BANK1[5]), getlogicseq@logi
       c_d1(BANK1[5]), 
   740 ;;
   741 ;; strcat@cp	PTR unsigned char  size(1) Largest target is 5
   742 ;;		 -> getlogicseq@logic_d4(BANK1[5]), getlogicseq@logic_d3(BANK1[5]), getlogicseq@logic_d2(BANK1[5]), getlogicseq@logi
       c_d1(BANK1[5]), 
   743 ;;
   744 ;; scroll@str	PTR unsigned char  size(1) Largest target is 38
   745 ;;		 -> STR_1(CODE[38]), 
   746 ;;
   747 ;; write@str	PTR unsigned char  size(2) Largest target is 38
   748 ;;		 -> STR_13(CODE[5]), STR_10(CODE[5]), STR_7(CODE[5]), STR_4(CODE[5]), 
   749 ;;		 -> getlogicseq@str(BANK1[32]), STR_1(CODE[38]), getlogicseq@logic_d4(BANK1[5]), getlogicseq@logic_d3(BANK1[5]), 
   750 ;;		 -> getlogicseq@logic_d2(BANK1[5]), getlogicseq@logic_d1(BANK1[5]), 
   751 ;;
   752 ;; itoaa@ptr	PTR unsigned char  size(1) Largest target is 16
   753 ;;		 -> getlogicseq@snum(BANK1[16]), 
   754 ;;
   755 ;; sp__strcat	PTR unsigned char  size(1) Largest target is 5
   756 ;;		 -> getlogicseq@logic_d4(BANK1[5]), getlogicseq@logic_d3(BANK1[5]), getlogicseq@logic_d2(BANK1[5]), getlogicseq@logi
       c_d1(BANK1[5]), 
   757 ;;
   758 ;; sp__strcpy	PTR unsigned char  size(1) Largest target is 32
   759 ;;		 -> getlogicseq@str(BANK1[32]), getlogicseq@logic_d4(BANK1[5]), getlogicseq@logic_d3(BANK1[5]), getlogicseq@logic_d2
       (BANK1[5]), 
   760 ;;		 -> getlogicseq@logic_d1(BANK1[5]), 
   761 ;;
   762                           
   763                           
   764 ;;
   765 ;; Critical Paths under _main in COMMON
   766 ;;
   767 ;;   _getlogicseq->_write
   768 ;;   _scroll->_write
   769 ;;   _write->_cmd
   770 ;;   _write->_dat
   771 ;;   _clearlcd->_cmd
   772 ;;   _scan->_actrow
   773 ;;   _initlcd->_cmd
   774 ;;   _actrow->_delay
   775 ;;   _dat->_setLCD
   776 ;;   _cmd->_setLCD
   777 ;;   _itoaa->___awdiv
   778 ;;
   779 ;; Critical Paths under _main in BANK0
   780 ;;
   781 ;;   _main->_getlogicseq
   782 ;;   _getlogicseq->_scroll
   783 ;;   _scroll->_write
   784 ;;   _dat->_setLCD
   785 ;;   _cmd->_setLCD
   786 ;;
   787 ;; Critical Paths under _main in BANK1
   788 ;;
   789 ;;   _main->_getlogicseq
   790 ;;
   791 ;; Critical Paths under _main in BANK3
   792 ;;
   793 ;;   None.
   794 ;;
   795 ;; Critical Paths under _main in BANK2
   796 ;;
   797 ;;   None.
   798                           
   799 ;;
   800 ;;Main: autosize = 0, tempsize = 0, incstack = 0, save=0
   801 ;;
   802                           
   803 ;;
   804 ;;Call Graph Tables:
   805 ;;
   806 ;; ---------------------------------------------------------------------------------
   807 ;; (Depth) Function   	        Calls       Base Space   Used Autos Params    Refs
   808 ;; ---------------------------------------------------------------------------------
   809 ;; (0) _main                                                 0     0      0    6345
   810 ;;                            _initlcd
   811 ;;                         _initkeypad
   812 ;;                        _getlogicseq
   813 ;; ---------------------------------------------------------------------------------
   814 ;; (1) _getlogicseq                                         82    82      0    5981
   815 ;;                                             60 BANK0      4     4      0
   816 ;;                                              0 BANK1     78    78      0
   817 ;;                             _scroll
   818 ;;                             _strcpy
   819 ;;                              _write
   820 ;;                               _scan
   821 ;;                              _itoaa
   822 ;;                             _strcat
   823 ;; ---------------------------------------------------------------------------------
   824 ;; (2) _scroll                                              52    50      2    1820
   825 ;;                                             40 BANK0     20    18      2
   826 ;;                              _write
   827 ;;                              _delay
   828 ;;                                _cmd
   829 ;; ---------------------------------------------------------------------------------
   830 ;; (2) _write                                               10     4      6    1226
   831 ;;                                             10 COMMON     4     4      0
   832 ;;                                             34 BANK0      6     0      6
   833 ;;                           _clearlcd
   834 ;;                                _cmd
   835 ;;                                _dat
   836 ;; ---------------------------------------------------------------------------------
   837 ;; (3) _clearlcd                                             0     0      0     364
   838 ;;                                _cmd
   839 ;; ---------------------------------------------------------------------------------
   840 ;; (2) _scan                                                 2     0      2     110
   841 ;;                                              4 COMMON     2     0      2
   842 ;;                             _actrow
   843 ;; ---------------------------------------------------------------------------------
   844 ;; (1) _initlcd                                              0     0      0     364
   845 ;;                                _cmd
   846 ;; ---------------------------------------------------------------------------------
   847 ;; (3) _actrow                                               2     0      2     110
   848 ;;                                              2 COMMON     2     0      2
   849 ;;                           _resetout
   850 ;;                              _delay
   851 ;; ---------------------------------------------------------------------------------
   852 ;; (3) _dat                                                  2     0      2     364
   853 ;;                                              8 COMMON     2     0      2
   854 ;;                             _setLCD
   855 ;;                              _delay
   856 ;; ---------------------------------------------------------------------------------
   857 ;; (3) _cmd                                                  2     0      2     364
   858 ;;                                              8 COMMON     2     0      2
   859 ;;                             _setLCD
   860 ;;                              _delay
   861 ;; ---------------------------------------------------------------------------------
   862 ;; (2) _itoaa                                                8     5      3    1078
   863 ;;                                              9 COMMON     4     1      3
   864 ;;                                              0 BANK0      4     4      0
   865 ;;                             ___wmul
   866 ;;                            ___awdiv
   867 ;;                            ___awmod
   868 ;; ---------------------------------------------------------------------------------
   869 ;; (3) ___awmod                                              7     3      4     296
   870 ;;                                              0 COMMON     7     3      4
   871 ;; ---------------------------------------------------------------------------------
   872 ;; (3) ___awdiv                                              9     5      4     300
   873 ;;                                              0 COMMON     9     5      4
   874 ;; ---------------------------------------------------------------------------------
   875 ;; (3) ___wmul                                               6     2      4      92
   876 ;;                                              0 COMMON     6     2      4
   877 ;; ---------------------------------------------------------------------------------
   878 ;; (4) _resetout                                             0     0      0       0
   879 ;; ---------------------------------------------------------------------------------
   880 ;; (5) _setLCD                                              42    40      2     320
   881 ;;                                              0 COMMON     8     6      2
   882 ;;                                              0 BANK0     34    34      0
   883 ;; ---------------------------------------------------------------------------------
   884 ;; (4) _delay                                                2     0      2      22
   885 ;;                                              0 COMMON     2     0      2
   886 ;; ---------------------------------------------------------------------------------
   887 ;; (2) _strcat                                               4     3      1      96
   888 ;;                                              0 COMMON     4     3      1
   889 ;; ---------------------------------------------------------------------------------
   890 ;; (3) _strcpy                                               4     3      1      73
   891 ;;                                              0 COMMON     4     3      1
   892 ;; ---------------------------------------------------------------------------------
   893 ;; (1) _initkeypad                                           0     0      0       0
   894 ;; ---------------------------------------------------------------------------------
   895 ;; Estimated maximum stack depth 5
   896 ;; ---------------------------------------------------------------------------------
   897                           
   898 ;; Call Graph Graphs:
   899                           
   900 ;; _main (ROOT)
   901 ;;   _initlcd
   902 ;;     _cmd
   903 ;;       _setLCD
   904 ;;       _delay
   905 ;;   _initkeypad
   906 ;;   _getlogicseq
   907 ;;     _scroll
   908 ;;       _write
   909 ;;         _clearlcd
   910 ;;           _cmd
   911 ;;             _setLCD
   912 ;;             _delay
   913 ;;         _cmd
   914 ;;           _setLCD
   915 ;;           _delay
   916 ;;         _dat
   917 ;;           _setLCD
   918 ;;           _delay
   919 ;;       _delay
   920 ;;       _cmd
   921 ;;         _setLCD
   922 ;;         _delay
   923 ;;     _strcpy
   924 ;;     _write
   925 ;;       _clearlcd
   926 ;;         _cmd
   927 ;;           _setLCD
   928 ;;           _delay
   929 ;;       _cmd
   930 ;;         _setLCD
   931 ;;         _delay
   932 ;;       _dat
   933 ;;         _setLCD
   934 ;;         _delay
   935 ;;     _scan
   936 ;;       _actrow
   937 ;;         _resetout
   938 ;;         _delay
   939 ;;     _itoaa
   940 ;;       ___wmul
   941 ;;       ___awdiv
   942 ;;       ___awmod
   943 ;;     _strcat
   944 ;;
   945                           
   946 ;; Address spaces:
   947                           
   948 ;;Name               Size   Autos  Total    Cost      Usage
   949 ;;BANK3               60      0      15       9       21.9%
   950 ;;BITBANK3            60      0       0       8        0.0%
   951 ;;SFR3                 0      0       0       4        0.0%
   952 ;;BITSFR3              0      0       0       4        0.0%
   953 ;;BANK2               60      0       0      11        0.0%
   954 ;;BITBANK2            60      0       0      10        0.0%
   955 ;;SFR2                 0      0       0       5        0.0%
   956 ;;BITSFR2              0      0       0       5        0.0%
   957 ;;SFR1                 0      0       0       2        0.0%
   958 ;;BITSFR1              0      0       0       2        0.0%
   959 ;;BANK1               50     4E      4E       7       97.5%
   960 ;;BITBANK1            50      0       0       6        0.0%
   961 ;;CODE                 0      0       0       0        0.0%
   962 ;;DATA                 0      0      C7      12        0.0%
   963 ;;ABS                  0      0      C0       3        0.0%
   964 ;;NULL                 0      0       0       0        0.0%
   965 ;;STACK                0      0       7       2        0.0%
   966 ;;BANK0               50     40      4F       5       98.8%
   967 ;;BITBANK0            50      0       0       4        0.0%
   968 ;;SFR0                 0      0       0       1        0.0%
   969 ;;BITSFR0              0      0       0       1        0.0%
   970 ;;COMMON               E      E       E       1      100.0%
   971 ;;BITCOMMON            E      0       0       0        0.0%
   972 ;;EEDATA             100      0       0       0        0.0%
   973                           
   974                           	global	_main
   975                           psect	maintext,global,class=CODE,delta=2
   976                           global __pmaintext
   977  0C89                     __pmaintext:
   978                           
   979 ;; *************** function _main *****************
   980 ;; Defined at:
   981 ;;		line 79 in file "C:\PIC\PROJECTS\Training_Project\Code\LCD\lcd1.c"
   982 ;; Parameters:    Size  Location     Type
   983 ;;		None
   984 ;; Auto vars:     Size  Location     Type
   985 ;;		None
   986 ;; Return value:  Size  Location     Type
   987 ;;                  2  664[COMMON] int 
   988 ;; Registers used:
   989 ;;		wreg, fsr0l, fsr0h, status,2, status,0, btemp+1, pclath, cstack
   990 ;; Tracked objects:
   991 ;;		On entry : 17F/0
   992 ;;		On exit  : 0/0
   993 ;;		Unchanged: 0/0
   994 ;; Data sizes:     COMMON   BANK0   BANK1   BANK3   BANK2
   995 ;;      Params:         0       0       0       0       0
   996 ;;      Locals:         0       0       0       0       0
   997 ;;      Temps:          0       0       0       0       0
   998 ;;      Totals:         0       0       0       0       0
   999 ;;Total ram usage:        0 bytes
  1000 ;; Hardware stack levels required when called:    7
  1001 ;; This function calls:
  1002 ;;		_initlcd
  1003 ;;		_initkeypad
  1004 ;;		_getlogicseq
  1005 ;; This function is called by:
  1006 ;;		Startup code after reset
  1007 ;; This function uses a non-reentrant model
  1008 ;;
  1009                           psect	maintext
  1010                           	file	"C:\PIC\PROJECTS\Training_Project\Code\LCD\lcd1.c"
  1011                           	line	79
  1012                           	global	__size_of_main
  1013  0015                     	__size_of_main	equ	__end_of_main-_main
  1014                           	
  1015  0C89                     _main:	
  1016                           	opt	stack 1
  1017                           ; Regs used in _main: [wreg-fsr0h+status,2+status,0+btemp+1+pclath+cstack]
  1018                           	line	84
  1019                           	
  1020  0C89                     l3178:	
  1021                           ;lcd1.c: 84: initlcd();
  1022  0C89  120A  158A  2583   	fcall	_initlcd
              120A  158A         
  1023                           	line	85
  1024                           	
  1025  0C8E                     l3180:	
  1026                           ;lcd1.c: 85: initkeypad();
  1027  0C8E  120A  158A  244C   	fcall	_initkeypad
              120A  158A         
  1028  0C93  2C94               	goto	l3182
  1029                           	line	89
  1030                           ;lcd1.c: 89: while(1){
  1031                           	
  1032  0C94                     l665:	
  1033                           	line	90
  1034                           	
  1035  0C94                     l3182:	
  1036                           ;lcd1.c: 90: getlogicseq();
  1037  0C94  120A  118A  23BA   	fcall	_getlogicseq
              120A  158A         
  1038  0C99  2C94               	goto	l3182
  1039                           	line	91
  1040                           	
  1041  0C9A                     l666:	
  1042                           	line	89
  1043  0C9A  2C94               	goto	l3182
  1044                           	
  1045  0C9B                     l667:	
  1046                           	line	97
  1047                           	
  1048  0C9B                     l668:	
  1049                           	global	start
  1050  0C9B  120A  118A  2800   	ljmp	start
  1051                           	opt stack 0
  1052                           GLOBAL	__end_of_main
  1053  0C9E                     	__end_of_main:
  1054 ;; =============== function _main ends ============
  1055                           
  1056                           	signat	_main,90
  1057                           	global	_getlogicseq
  1058                           psect	text440,local,class=CODE,delta=2
  1059                           global __ptext440
  1060  03BA                     __ptext440:
  1061                           
  1062 ;; *************** function _getlogicseq *****************
  1063 ;; Defined at:
  1064 ;;		line 105 in file "C:\PIC\PROJECTS\Training_Project\Code\LCD\lcd1.c"
  1065 ;; Parameters:    Size  Location     Type
  1066 ;;		None
  1067 ;; Auto vars:     Size  Location     Type
  1068 ;;  str            32    0[BANK1 ] unsigned char [32]
  1069 ;;  snum           16   34[BANK1 ] unsigned char [16]
  1070 ;;  logic_d4        5   65[BANK1 ] unsigned char [5]
  1071 ;;  logic_d3        5   60[BANK1 ] unsigned char [5]
  1072 ;;  logic_d2        5   55[BANK1 ] unsigned char [5]
  1073 ;;  logic_d1        5   50[BANK1 ] unsigned char [5]
  1074 ;;  num             2   76[BANK1 ] int 
  1075 ;;  ccount          2   74[BANK1 ] int 
  1076 ;;  wf              2   72[BANK1 ] int 
  1077 ;;  nf              2   70[BANK1 ] int 
  1078 ;;  bf              2   32[BANK1 ] int 
  1079 ;; Return value:  Size  Location     Type
  1080 ;;		None               void
  1081 ;; Registers used:
  1082 ;;		wreg, fsr0l, fsr0h, status,2, status,0, btemp+1, pclath, cstack
  1083 ;; Tracked objects:
  1084 ;;		On entry : 0/0
  1085 ;;		On exit  : 0/0
  1086 ;;		Unchanged: 0/0
  1087 ;; Data sizes:     COMMON   BANK0   BANK1   BANK3   BANK2
  1088 ;;      Params:         0       0       0       0       0
  1089 ;;      Locals:         0       0      78       0       0
  1090 ;;      Temps:          0       4       0       0       0
  1091 ;;      Totals:         0       4      78       0       0
  1092 ;;Total ram usage:       82 bytes
  1093 ;; Hardware stack levels used:    1
  1094 ;; Hardware stack levels required when called:    6
  1095 ;; This function calls:
  1096 ;;		_scroll
  1097 ;;		_strcpy
  1098 ;;		_write
  1099 ;;		_scan
  1100 ;;		_itoaa
  1101 ;;		_strcat
  1102 ;; This function is called by:
  1103 ;;		_main
  1104 ;; This function uses a non-reentrant model
  1105 ;;
  1106                           psect	text440
  1107                           	file	"C:\PIC\PROJECTS\Training_Project\Code\LCD\lcd1.c"
  1108                           	line	105
  1109                           	global	__size_of_getlogicseq
  1110  0446                     	__size_of_getlogicseq	equ	__end_of_getlogicseq-_getlogicseq
  1111                           	
  1112  03BA                     _getlogicseq:	
  1113                           	opt	stack 1
  1114                           ; Regs used in _getlogicseq: [wreg-fsr0h+status,2+status,0+btemp+1+pclath+cstack]
  1115                           	line	106
  1116                           	
  1117  03BA                     l2978:	
  1118                           ;lcd1.c: 106: char logic_d1[5]="1001";
  1119  03BA  30D2               	movlw	(getlogicseq@logic_d1)&0ffh
  1120  03BB  0084               	movwf	fsr0
  1121  03BC  1283               	bcf	status, 5	;RP0=0, select bank0
  1122  03BD  1303               	bcf	status, 6	;RP1=0, select bank0
  1123  03BE  0860               	movf	(getlogicseq@F1246),w
  1124  03BF  1383               	bcf	status, 7	;select IRP bank1
  1125  03C0  0080               	movwf	indf
  1126  03C1  0A84               	incf	fsr0,f
  1127  03C2  0861               	movf	(getlogicseq@F1246)+1,w
  1128  03C3  0080               	movwf	indf
  1129  03C4  0A84               	incf	fsr0,f
  1130  03C5  0862               	movf	(getlogicseq@F1246)+2,w
  1131  03C6  0080               	movwf	indf
  1132  03C7  0A84               	incf	fsr0,f
  1133  03C8  0863               	movf	(getlogicseq@F1246)+3,w
  1134  03C9  0080               	movwf	indf
  1135  03CA  0A84               	incf	fsr0,f
  1136  03CB  0864               	movf	(getlogicseq@F1246)+4,w
  1137  03CC  0080               	movwf	indf
  1138                           	line	107
  1139                           ;lcd1.c: 107: char logic_d2[5]="1011";
  1140  03CD  30D7               	movlw	(getlogicseq@logic_d2)&0ffh
  1141  03CE  0084               	movwf	fsr0
  1142  03CF  0865               	movf	(getlogicseq@F1248),w
  1143  03D0  0080               	movwf	indf
  1144  03D1  0A84               	incf	fsr0,f
  1145  03D2  0866               	movf	(getlogicseq@F1248)+1,w
  1146  03D3  0080               	movwf	indf
  1147  03D4  0A84               	incf	fsr0,f
  1148  03D5  0867               	movf	(getlogicseq@F1248)+2,w
  1149  03D6  0080               	movwf	indf
  1150  03D7  0A84               	incf	fsr0,f
  1151  03D8  0868               	movf	(getlogicseq@F1248)+3,w
  1152  03D9  0080               	movwf	indf
  1153  03DA  0A84               	incf	fsr0,f
  1154  03DB  0869               	movf	(getlogicseq@F1248)+4,w
  1155  03DC  0080               	movwf	indf
  1156                           	line	108
  1157                           ;lcd1.c: 108: char logic_d3[5]="1111";
  1158  03DD  30DC               	movlw	(getlogicseq@logic_d3)&0ffh
  1159  03DE  0084               	movwf	fsr0
  1160  03DF  086A               	movf	(getlogicseq@F1250),w
  1161  03E0  0080               	movwf	indf
  1162  03E1  0A84               	incf	fsr0,f
  1163  03E2  086B               	movf	(getlogicseq@F1250)+1,w
  1164  03E3  0080               	movwf	indf
  1165  03E4  0A84               	incf	fsr0,f
  1166  03E5  086C               	movf	(getlogicseq@F1250)+2,w
  1167  03E6  0080               	movwf	indf
  1168  03E7  0A84               	incf	fsr0,f
  1169  03E8  086D               	movf	(getlogicseq@F1250)+3,w
  1170  03E9  0080               	movwf	indf
  1171  03EA  0A84               	incf	fsr0,f
  1172  03EB  086E               	movf	(getlogicseq@F1250)+4,w
  1173  03EC  0080               	movwf	indf
  1174                           	line	109
  1175                           ;lcd1.c: 109: char logic_d4[5]="1010";
  1176  03ED  30E1               	movlw	(getlogicseq@logic_d4)&0ffh
  1177  03EE  0084               	movwf	fsr0
  1178  03EF  1683               	bsf	status, 5	;RP0=1, select bank3
  1179  03F0  1703               	bsf	status, 6	;RP1=1, select bank3
  1180  03F1  0820               	movf	(getlogicseq@F1252)^0180h,w
  1181  03F2  0080               	movwf	indf
  1182  03F3  0A84               	incf	fsr0,f
  1183  03F4  0821               	movf	(getlogicseq@F1252)^0180h+1,w
  1184  03F5  0080               	movwf	indf
  1185  03F6  0A84               	incf	fsr0,f
  1186  03F7  0822               	movf	(getlogicseq@F1252)^0180h+2,w
  1187  03F8  0080               	movwf	indf
  1188  03F9  0A84               	incf	fsr0,f
  1189  03FA  0823               	movf	(getlogicseq@F1252)^0180h+3,w
  1190  03FB  0080               	movwf	indf
  1191  03FC  0A84               	incf	fsr0,f
  1192  03FD  0824               	movf	(getlogicseq@F1252)^0180h+4,w
  1193  03FE  0080               	movwf	indf
  1194                           	line	112
  1195                           	
  1196  03FF                     l2980:	
  1197                           ;lcd1.c: 112: scroll("WELCOME ! TO PROGRAMABLE HOME AUTMATN",0);
  1198  03FF  3000               	movlw	low(0)
  1199  0400  1283               	bcf	status, 5	;RP0=0, select bank0
  1200  0401  1303               	bcf	status, 6	;RP1=0, select bank0
  1201  0402  00C8               	movwf	(?_scroll)
  1202  0403  3000               	movlw	high(0)
  1203  0404  00C9               	movwf	((?_scroll))+1
  1204  0405  3003               	movlw	((STR_1-__stringbase))&0ffh
  1205  0406  120A  158A  2732   	fcall	_scroll
              120A  118A         
  1206                           	line	117
  1207                           	
  1208  040B                     l2982:	
  1209                           ;lcd1.c: 116: int num ;
  1210                           ;lcd1.c: 117: char snum[16]="";
  1211  040B  30C2               	movlw	(getlogicseq@snum)&0ffh
  1212  040C  0084               	movwf	fsr0
  1213  040D  3090               	movlw	low(getlogicseq@F1255)
  1214  040E  1283               	bcf	status, 5	;RP0=0, select bank0
  1215  040F  1303               	bcf	status, 6	;RP1=0, select bank0
  1216  0410  00DC               	movwf	(??_getlogicseq+0)+0
  1217  0411  0804               	movf	fsr0,w
  1218  0412  00DD               	movwf	((??_getlogicseq+0)+0+1)
  1219  0413  3010               	movlw	16
  1220  0414  00DE               	movwf	((??_getlogicseq+0)+0+2)
  1221  0415                     u3860:
  1222  0415  085C               	movf	(??_getlogicseq+0)+0,w
  1223  0416  0084               	movwf	fsr0
  1224  0417  1783               	bsf	status, 7	;select IRP bank3
  1225                           	
  1226  0418  0800               	movf	indf,w
  1227  0419  00DF               	movwf	((??_getlogicseq+0)+0+3)
  1228  041A  0ADC               	incf	(??_getlogicseq+0)+0,f
  1229  041B  085D               	movf	((??_getlogicseq+0)+0+1),w
  1230  041C  0084               	movwf	fsr0
  1231  041D  1383               	bcf	status, 7	;select IRP bank1
  1232                           	
  1233  041E  085F               	movf	((??_getlogicseq+0)+0+3),w
  1234  041F  0080               	movwf	indf
  1235  0420  0ADD               	incf	((??_getlogicseq+0)+0+1),f
  1236  0421  0BDE               	decfsz	((??_getlogicseq+0)+0+2),f
  1237  0422  2C15               	goto	u3860
  1238                           	line	118
  1239                           	
  1240  0423                     l2984:	
  1241                           ;lcd1.c: 118: int wf=0;
  1242  0423  1683               	bsf	status, 5	;RP0=1, select bank1
  1243  0424  1303               	bcf	status, 6	;RP1=0, select bank1
  1244  0425  01E8               	clrf	(getlogicseq@wf)^080h
  1245  0426  01E9               	clrf	(getlogicseq@wf+1)^080h
  1246                           	line	119
  1247                           	
  1248  0427                     l2986:	
  1249                           ;lcd1.c: 119: int nf=0;
  1250  0427  01E6               	clrf	(getlogicseq@nf)^080h
  1251  0428  01E7               	clrf	(getlogicseq@nf+1)^080h
  1252                           	line	120
  1253                           	
  1254  0429                     l2988:	
  1255                           ;lcd1.c: 120: int bf=0;
  1256  0429  01C0               	clrf	(getlogicseq@bf)^080h
  1257  042A  01C1               	clrf	(getlogicseq@bf+1)^080h
  1258                           	line	121
  1259                           	
  1260  042B                     l2990:	
  1261                           ;lcd1.c: 121: int ccount=0;
  1262  042B  01EA               	clrf	(getlogicseq@ccount)^080h
  1263  042C  01EB               	clrf	(getlogicseq@ccount+1)^080h
  1264  042D  2C2E               	goto	l2992
  1265                           	line	123
  1266                           ;lcd1.c: 122: char str[32];
  1267                           ;lcd1.c: 123: START_SEQ:
  1268                           	
  1269  042E                     l681:	
  1270                           	line	125
  1271                           	
  1272  042E                     l2992:	
  1273                           ;lcd1.c: 125: wf=0;ccount=0;
  1274  042E  1683               	bsf	status, 5	;RP0=1, select bank1
  1275  042F  1303               	bcf	status, 6	;RP1=0, select bank1
  1276  0430  01E8               	clrf	(getlogicseq@wf)^080h
  1277  0431  01E9               	clrf	(getlogicseq@wf+1)^080h
  1278                           	
  1279  0432                     l2994:	
  1280  0432  01EA               	clrf	(getlogicseq@ccount)^080h
  1281  0433  01EB               	clrf	(getlogicseq@ccount+1)^080h
  1282                           	line	126
  1283                           	
  1284  0434                     l2996:	
  1285                           ;lcd1.c: 126: strcpy(str,"Enter Logic DEV1:  ");
  1286  0434  3029               	movlw	((STR_2-__stringbase))&0ffh
  1287  0435  1283               	bcf	status, 5	;RP0=0, select bank0
  1288  0436  1303               	bcf	status, 6	;RP1=0, select bank0
  1289  0437  00DC               	movwf	(??_getlogicseq+0)+0
  1290  0438  085C               	movf	(??_getlogicseq+0)+0,w
  1291  0439  00F0               	movwf	(?_strcpy)
  1292  043A  30A0               	movlw	(getlogicseq@str)&0ffh
  1293  043B  120A  158A  249E   	fcall	_strcpy
              120A  118A         
  1294                           	line	127
  1295                           	
  1296  0440                     l2998:	
  1297                           ;lcd1.c: 127: write(str,1,1);
  1298  0440  30A0               	movlw	(getlogicseq@str&0ffh)
  1299  0441  1283               	bcf	status, 5	;RP0=0, select bank0
  1300  0442  1303               	bcf	status, 6	;RP1=0, select bank0
  1301  0443  00C2               	movwf	(?_write)
  1302  0444  3000               	movlw	(0x1/2)
  1303  0445  00C3               	movwf	(?_write+1)
  1304  0446  3001               	movlw	low(01h)
  1305  0447  00C4               	movwf	0+(?_write)+02h
  1306  0448  3000               	movlw	high(01h)
  1307  0449  00C5               	movwf	(0+(?_write)+02h)+1
  1308  044A  3001               	movlw	low(01h)
  1309  044B  00C6               	movwf	0+(?_write)+04h
  1310  044C  3000               	movlw	high(01h)
  1311  044D  00C7               	movwf	(0+(?_write)+04h)+1
  1312  044E  120A  158A  25F4   	fcall	_write
              120A  118A         
  1313                           	line	128
  1314                           	
  1315  0453                     l3000:	
  1316                           ;lcd1.c: 128: write(logic_d1,2,0);
  1317  0453  30D2               	movlw	(getlogicseq@logic_d1&0ffh)
  1318  0454  1283               	bcf	status, 5	;RP0=0, select bank0
  1319  0455  1303               	bcf	status, 6	;RP1=0, select bank0
  1320  0456  00C2               	movwf	(?_write)
  1321  0457  3000               	movlw	(0x1/2)
  1322  0458  00C3               	movwf	(?_write+1)
  1323  0459  3002               	movlw	low(02h)
  1324  045A  00C4               	movwf	0+(?_write)+02h
  1325  045B  3000               	movlw	high(02h)
  1326  045C  00C5               	movwf	(0+(?_write)+02h)+1
  1327  045D  3000               	movlw	low(0)
  1328  045E  00C6               	movwf	0+(?_write)+04h
  1329  045F  3000               	movlw	high(0)
  1330  0460  00C7               	movwf	(0+(?_write)+04h)+1
  1331  0461  120A  158A  25F4   	fcall	_write
              120A  118A         
  1332  0466  2C67               	goto	l3002
  1333                           	line	130
  1334                           ;lcd1.c: 130: while(1)
  1335                           	
  1336  0467                     l682:	
  1337                           	line	132
  1338                           	
  1339  0467                     l3002:	
  1340                           ;lcd1.c: 131: {
  1341                           ;lcd1.c: 132: num=scan();
  1342  0467  120A  118A  20A3   	fcall	_scan
              120A  118A         
  1343  046C  0875               	movf	(1+(?_scan)),w
  1344  046D  1683               	bsf	status, 5	;RP0=1, select bank1
  1345  046E  1303               	bcf	status, 6	;RP1=0, select bank1
  1346  046F  01ED               	clrf	(getlogicseq@num+1)^080h
  1347  0470  07ED               	addwf	(getlogicseq@num+1)^080h
  1348  0471  0874               	movf	(0+(?_scan)),w
  1349  0472  01EC               	clrf	(getlogicseq@num)^080h
  1350  0473  07EC               	addwf	(getlogicseq@num)^080h
  1351                           
  1352                           	line	133
  1353                           	
  1354  0474                     l3004:	
  1355                           ;lcd1.c: 133: if(num==1||num==0){
  1356  0474  3001               	movlw	01h
  1357  0475  066C               	xorwf	(getlogicseq@num)^080h,w
  1358  0476  046D               	iorwf	(getlogicseq@num+1)^080h,w
  1359  0477  1903               	skipnz
  1360  0478  2C7A               	goto	u3871
  1361  0479  2C7B               	goto	u3870
  1362  047A                     u3871:
  1363  047A  2C82               	goto	l3008
  1364  047B                     u3870:
  1365                           	
  1366  047B                     l3006:	
  1367  047B  086D               	movf	((getlogicseq@num+1)^080h),w
  1368  047C  046C               	iorwf	((getlogicseq@num)^080h),w
  1369  047D  1D03               	skipz
  1370  047E  2C80               	goto	u3881
  1371  047F  2C81               	goto	u3880
  1372  0480                     u3881:
  1373  0480  2CEE               	goto	l3024
  1374  0481                     u3880:
  1375  0481  2C82               	goto	l3008
  1376                           	
  1377  0482                     l685:	
  1378                           	line	134
  1379                           	
  1380  0482                     l3008:	
  1381                           ;lcd1.c: 134: if(wf==0)
  1382  0482  0869               	movf	((getlogicseq@wf+1)^080h),w
  1383  0483  0468               	iorwf	((getlogicseq@wf)^080h),w
  1384  0484  1D03               	skipz
  1385  0485  2C87               	goto	u3891
  1386  0486  2C88               	goto	u3890
  1387  0487                     u3891:
  1388  0487  2CF1               	goto	l3026
  1389  0488                     u3890:
  1390                           	line	136
  1391                           	
  1392  0488                     l3010:	
  1393                           ;lcd1.c: 135: {
  1394                           ;lcd1.c: 136: if(ccount==0)
  1395  0488  086B               	movf	((getlogicseq@ccount+1)^080h),w
  1396  0489  046A               	iorwf	((getlogicseq@ccount)^080h),w
  1397  048A  1D03               	skipz
  1398  048B  2C8D               	goto	u3901
  1399  048C  2C8E               	goto	u3900
  1400  048D                     u3901:
  1401  048D  2C9B               	goto	l3014
  1402  048E                     u3900:
  1403                           	line	137
  1404                           	
  1405  048E                     l3012:	
  1406                           ;lcd1.c: 137: strcpy(logic_d1,"");
  1407  048E  303C               	movlw	((STR_3-__stringbase))&0ffh
  1408  048F  1283               	bcf	status, 5	;RP0=0, select bank0
  1409  0490  1303               	bcf	status, 6	;RP1=0, select bank0
  1410  0491  00DC               	movwf	(??_getlogicseq+0)+0
  1411  0492  085C               	movf	(??_getlogicseq+0)+0,w
  1412  0493  00F0               	movwf	(?_strcpy)
  1413  0494  30D2               	movlw	(getlogicseq@logic_d1)&0ffh
  1414  0495  120A  158A  249E   	fcall	_strcpy
              120A  118A         
  1415  049A  2C9B               	goto	l3014
  1416                           	
  1417  049B                     l687:	
  1418                           	line	138
  1419                           	
  1420  049B                     l3014:	
  1421                           ;lcd1.c: 138: write("----",2,0);
  1422  049B  3079               	movlw	low((STR_4-__stringbase))
  1423  049C  1283               	bcf	status, 5	;RP0=0, select bank0
  1424  049D  1303               	bcf	status, 6	;RP1=0, select bank0
  1425  049E  00C2               	movwf	(?_write)
  1426  049F  3080               	movlw	80h
  1427  04A0  00C3               	movwf	(?_write+1)
  1428  04A1  3002               	movlw	low(02h)
  1429  04A2  00C4               	movwf	0+(?_write)+02h
  1430  04A3  3000               	movlw	high(02h)
  1431  04A4  00C5               	movwf	(0+(?_write)+02h)+1
  1432  04A5  3000               	movlw	low(0)
  1433  04A6  00C6               	movwf	0+(?_write)+04h
  1434  04A7  3000               	movlw	high(0)
  1435  04A8  00C7               	movwf	(0+(?_write)+04h)+1
  1436  04A9  120A  158A  25F4   	fcall	_write
              120A  118A         
  1437                           	line	139
  1438                           	
  1439  04AE                     l3016:	
  1440                           ;lcd1.c: 139: itoaa(num, snum);
  1441  04AE  1683               	bsf	status, 5	;RP0=1, select bank1
  1442  04AF  1303               	bcf	status, 6	;RP1=0, select bank1
  1443  04B0  086D               	movf	(getlogicseq@num+1)^080h,w
  1444  04B1  01FA               	clrf	(?_itoaa+1)
  1445  04B2  07FA               	addwf	(?_itoaa+1)
  1446  04B3  086C               	movf	(getlogicseq@num)^080h,w
  1447  04B4  01F9               	clrf	(?_itoaa)
  1448  04B5  07F9               	addwf	(?_itoaa)
  1449                           
  1450  04B6  30C2               	movlw	(getlogicseq@snum)&0ffh
  1451  04B7  1283               	bcf	status, 5	;RP0=0, select bank0
  1452  04B8  1303               	bcf	status, 6	;RP1=0, select bank0
  1453  04B9  00DC               	movwf	(??_getlogicseq+0)+0
  1454  04BA  085C               	movf	(??_getlogicseq+0)+0,w
  1455  04BB  00FB               	movwf	0+(?_itoaa)+02h
  1456  04BC  120A  118A  218B   	fcall	_itoaa
              120A  118A         
  1457                           	line	140
  1458                           ;lcd1.c: 140: strcat(logic_d1,snum);
  1459  04C1  30C2               	movlw	(getlogicseq@snum)&0ffh
  1460  04C2  1283               	bcf	status, 5	;RP0=0, select bank0
  1461  04C3  1303               	bcf	status, 6	;RP1=0, select bank0
  1462  04C4  00DC               	movwf	(??_getlogicseq+0)+0
  1463  04C5  085C               	movf	(??_getlogicseq+0)+0,w
  1464  04C6  00F0               	movwf	(?_strcat)
  1465  04C7  30D2               	movlw	(getlogicseq@logic_d1)&0ffh
  1466  04C8  120A  158A  2530   	fcall	_strcat
              120A  118A         
  1467                           	line	141
  1468                           	
  1469  04CD                     l3018:	
  1470                           ;lcd1.c: 141: write( logic_d1,2,0); ;
  1471  04CD  30D2               	movlw	(getlogicseq@logic_d1&0ffh)
  1472  04CE  1283               	bcf	status, 5	;RP0=0, select bank0
  1473  04CF  1303               	bcf	status, 6	;RP1=0, select bank0
  1474  04D0  00C2               	movwf	(?_write)
  1475  04D1  3000               	movlw	(0x1/2)
  1476  04D2  00C3               	movwf	(?_write+1)
  1477  04D3  3002               	movlw	low(02h)
  1478  04D4  00C4               	movwf	0+(?_write)+02h
  1479  04D5  3000               	movlw	high(02h)
  1480  04D6  00C5               	movwf	(0+(?_write)+02h)+1
  1481  04D7  3000               	movlw	low(0)
  1482  04D8  00C6               	movwf	0+(?_write)+04h
  1483  04D9  3000               	movlw	high(0)
  1484  04DA  00C7               	movwf	(0+(?_write)+04h)+1
  1485  04DB  120A  158A  25F4   	fcall	_write
              120A  118A         
  1486                           	line	142
  1487                           	
  1488  04E0                     l3020:	
  1489                           ;lcd1.c: 142: wf=1;
  1490  04E0  3001               	movlw	low(01h)
  1491  04E1  1683               	bsf	status, 5	;RP0=1, select bank1
  1492  04E2  1303               	bcf	status, 6	;RP1=0, select bank1
  1493  04E3  00E8               	movwf	(getlogicseq@wf)^080h
  1494  04E4  3000               	movlw	high(01h)
  1495  04E5  00E9               	movwf	((getlogicseq@wf)^080h)+1
  1496                           	line	143
  1497                           	
  1498  04E6                     l3022:	
  1499                           ;lcd1.c: 143: ccount++;
  1500  04E6  3001               	movlw	low(01h)
  1501  04E7  07EA               	addwf	(getlogicseq@ccount)^080h,f
  1502  04E8  1803               	skipnc
  1503  04E9  0AEB               	incf	(getlogicseq@ccount+1)^080h,f
  1504  04EA  3000               	movlw	high(01h)
  1505  04EB  07EB               	addwf	(getlogicseq@ccount+1)^080h,f
  1506  04EC  2CF1               	goto	l3026
  1507                           	line	144
  1508                           	
  1509  04ED                     l686:	
  1510                           	line	145
  1511                           ;lcd1.c: 144: }
  1512                           ;lcd1.c: 145: }
  1513  04ED  2CF1               	goto	l3026
  1514                           	line	146
  1515                           	
  1516  04EE                     l683:	
  1517                           	line	147
  1518                           	
  1519  04EE                     l3024:	
  1520                           ;lcd1.c: 146: else{
  1521                           ;lcd1.c: 147: wf=0;
  1522  04EE  01E8               	clrf	(getlogicseq@wf)^080h
  1523  04EF  01E9               	clrf	(getlogicseq@wf+1)^080h
  1524  04F0  2CF1               	goto	l3026
  1525                           	line	148
  1526                           	
  1527  04F1                     l688:	
  1528                           	line	149
  1529                           	
  1530  04F1                     l3026:	
  1531                           ;lcd1.c: 148: }
  1532                           ;lcd1.c: 149: if(ccount>3)
  1533  04F1  086B               	movf	(getlogicseq@ccount+1)^080h,w
  1534  04F2  3A80               	xorlw	80h
  1535  04F3  00FF               	movwf	btemp+1
  1536  04F4  3080               	movlw	(high(04h))^80h
  1537  04F5  027F               	subwf	btemp+1,w
  1538  04F6  1D03               	skipz
  1539  04F7  2CFA               	goto	u3915
  1540  04F8  3004               	movlw	low(04h)
  1541  04F9  026A               	subwf	(getlogicseq@ccount)^080h,w
  1542  04FA                     u3915:
  1543                           
  1544  04FA  1C03               	skipc
  1545  04FB  2CFD               	goto	u3911
  1546  04FC  2CFE               	goto	u3910
  1547  04FD                     u3911:
  1548  04FD  2D00               	goto	l3030
  1549  04FE                     u3910:
  1550  04FE  2D22               	goto	l3040
  1551                           	line	150
  1552                           	
  1553  04FF                     l3028:	
  1554                           ;lcd1.c: 150: break;
  1555  04FF  2D22               	goto	l3040
  1556                           	
  1557  0500                     l689:	
  1558                           	line	153
  1559                           	
  1560  0500                     l3030:	
  1561                           ;lcd1.c: 153: if(num==2)
  1562  0500  3002               	movlw	02h
  1563  0501  1683               	bsf	status, 5	;RP0=1, select bank1
  1564  0502  1303               	bcf	status, 6	;RP1=0, select bank1
  1565  0503  066C               	xorwf	(getlogicseq@num)^080h,w
  1566  0504  046D               	iorwf	(getlogicseq@num+1)^080h,w
  1567  0505  1D03               	skipz
  1568  0506  2D08               	goto	u3921
  1569  0507  2D09               	goto	u3920
  1570  0508                     u3921:
  1571  0508  2D15               	goto	l3036
  1572  0509                     u3920:
  1573                           	line	155
  1574                           	
  1575  0509                     l3032:	
  1576                           ;lcd1.c: 154: {
  1577                           ;lcd1.c: 155: if(nf==0){
  1578  0509  0867               	movf	((getlogicseq@nf+1)^080h),w
  1579  050A  0466               	iorwf	((getlogicseq@nf)^080h),w
  1580  050B  1D03               	skipz
  1581  050C  2D0E               	goto	u3931
  1582  050D  2D0F               	goto	u3930
  1583  050E                     u3931:
  1584  050E  2C67               	goto	l3002
  1585  050F                     u3930:
  1586                           	line	156
  1587                           	
  1588  050F                     l3034:	
  1589                           ;lcd1.c: 156: nf=1;
  1590  050F  3001               	movlw	low(01h)
  1591  0510  00E6               	movwf	(getlogicseq@nf)^080h
  1592  0511  3000               	movlw	high(01h)
  1593  0512  00E7               	movwf	((getlogicseq@nf)^080h)+1
  1594                           	line	157
  1595                           ;lcd1.c: 157: break;
  1596  0513  2D22               	goto	l3040
  1597                           	line	158
  1598                           	
  1599  0514                     l692:	
  1600                           	line	159
  1601                           ;lcd1.c: 158: }
  1602                           ;lcd1.c: 159: }
  1603  0514  2C67               	goto	l3002
  1604                           	line	160
  1605                           	
  1606  0515                     l691:	
  1607                           	
  1608  0515                     l3036:	
  1609                           ;lcd1.c: 160: else if(num==99){
  1610  0515  3063               	movlw	063h
  1611  0516  066C               	xorwf	(getlogicseq@num)^080h,w
  1612  0517  046D               	iorwf	(getlogicseq@num+1)^080h,w
  1613  0518  1D03               	skipz
  1614  0519  2D1B               	goto	u3941
  1615  051A  2D1C               	goto	u3940
  1616  051B                     u3941:
  1617  051B  2C67               	goto	l3002
  1618  051C                     u3940:
  1619                           	line	161
  1620                           	
  1621  051C                     l3038:	
  1622                           ;lcd1.c: 161: nf=0;
  1623  051C  01E6               	clrf	(getlogicseq@nf)^080h
  1624  051D  01E7               	clrf	(getlogicseq@nf+1)^080h
  1625  051E  2C67               	goto	l3002
  1626                           	line	162
  1627                           	
  1628  051F                     l694:	
  1629  051F  2C67               	goto	l3002
  1630                           	line	163
  1631                           	
  1632  0520                     l693:	
  1633  0520  2C67               	goto	l3002
  1634                           	
  1635  0521                     l695:	
  1636                           	line	130
  1637  0521  2C67               	goto	l3002
  1638                           	
  1639  0522                     l690:	
  1640                           	line	166
  1641                           	
  1642  0522                     l3040:	
  1643                           ;lcd1.c: 162: }
  1644                           ;lcd1.c: 163: }
  1645                           ;lcd1.c: 166: wf=0;ccount=0;
  1646  0522  1683               	bsf	status, 5	;RP0=1, select bank1
  1647  0523  1303               	bcf	status, 6	;RP1=0, select bank1
  1648  0524  01E8               	clrf	(getlogicseq@wf)^080h
  1649  0525  01E9               	clrf	(getlogicseq@wf+1)^080h
  1650  0526  01EA               	clrf	(getlogicseq@ccount)^080h
  1651  0527  01EB               	clrf	(getlogicseq@ccount+1)^080h
  1652                           	line	167
  1653                           	
  1654  0528                     l3042:	
  1655                           ;lcd1.c: 167: strcpy(str,"Enter Logic DEV2:  ");
  1656  0528  303D               	movlw	((STR_5-__stringbase))&0ffh
  1657  0529  1283               	bcf	status, 5	;RP0=0, select bank0
  1658  052A  1303               	bcf	status, 6	;RP1=0, select bank0
  1659  052B  00DC               	movwf	(??_getlogicseq+0)+0
  1660  052C  085C               	movf	(??_getlogicseq+0)+0,w
  1661  052D  00F0               	movwf	(?_strcpy)
  1662  052E  30A0               	movlw	(getlogicseq@str)&0ffh
  1663  052F  120A  158A  249E   	fcall	_strcpy
              120A  118A         
  1664                           	line	168
  1665                           	
  1666  0534                     l3044:	
  1667                           ;lcd1.c: 168: write(str,1,1);
  1668  0534  30A0               	movlw	(getlogicseq@str&0ffh)
  1669  0535  1283               	bcf	status, 5	;RP0=0, select bank0
  1670  0536  1303               	bcf	status, 6	;RP1=0, select bank0
  1671  0537  00C2               	movwf	(?_write)
  1672  0538  3000               	movlw	(0x1/2)
  1673  0539  00C3               	movwf	(?_write+1)
  1674  053A  3001               	movlw	low(01h)
  1675  053B  00C4               	movwf	0+(?_write)+02h
  1676  053C  3000               	movlw	high(01h)
  1677  053D  00C5               	movwf	(0+(?_write)+02h)+1
  1678  053E  3001               	movlw	low(01h)
  1679  053F  00C6               	movwf	0+(?_write)+04h
  1680  0540  3000               	movlw	high(01h)
  1681  0541  00C7               	movwf	(0+(?_write)+04h)+1
  1682  0542  120A  158A  25F4   	fcall	_write
              120A  118A         
  1683                           	line	169
  1684                           	
  1685  0547                     l3046:	
  1686                           ;lcd1.c: 169: write(logic_d2,2,0);
  1687  0547  30D7               	movlw	(getlogicseq@logic_d2&0ffh)
  1688  0548  1283               	bcf	status, 5	;RP0=0, select bank0
  1689  0549  1303               	bcf	status, 6	;RP1=0, select bank0
  1690  054A  00C2               	movwf	(?_write)
  1691  054B  3000               	movlw	(0x1/2)
  1692  054C  00C3               	movwf	(?_write+1)
  1693  054D  3002               	movlw	low(02h)
  1694  054E  00C4               	movwf	0+(?_write)+02h
  1695  054F  3000               	movlw	high(02h)
  1696  0550  00C5               	movwf	(0+(?_write)+02h)+1
  1697  0551  3000               	movlw	low(0)
  1698  0552  00C6               	movwf	0+(?_write)+04h
  1699  0553  3000               	movlw	high(0)
  1700  0554  00C7               	movwf	(0+(?_write)+04h)+1
  1701  0555  120A  158A  25F4   	fcall	_write
              120A  118A         
  1702  055A  2D5B               	goto	l3048
  1703                           	line	171
  1704                           ;lcd1.c: 171: while(1)
  1705                           	
  1706  055B                     l696:	
  1707                           	line	173
  1708                           	
  1709  055B                     l3048:	
  1710                           ;lcd1.c: 172: {
  1711                           ;lcd1.c: 173: num=scan();
  1712  055B  120A  118A  20A3   	fcall	_scan
              120A  118A         
  1713  0560  0875               	movf	(1+(?_scan)),w
  1714  0561  1683               	bsf	status, 5	;RP0=1, select bank1
  1715  0562  1303               	bcf	status, 6	;RP1=0, select bank1
  1716  0563  01ED               	clrf	(getlogicseq@num+1)^080h
  1717  0564  07ED               	addwf	(getlogicseq@num+1)^080h
  1718  0565  0874               	movf	(0+(?_scan)),w
  1719  0566  01EC               	clrf	(getlogicseq@num)^080h
  1720  0567  07EC               	addwf	(getlogicseq@num)^080h
  1721                           
  1722                           	line	174
  1723                           	
  1724  0568                     l3050:	
  1725                           ;lcd1.c: 174: if(num==1||num==0){
  1726  0568  3001               	movlw	01h
  1727  0569  066C               	xorwf	(getlogicseq@num)^080h,w
  1728  056A  046D               	iorwf	(getlogicseq@num+1)^080h,w
  1729  056B  1903               	skipnz
  1730  056C  2D6E               	goto	u3951
  1731  056D  2D6F               	goto	u3950
  1732  056E                     u3951:
  1733  056E  2D76               	goto	l3054
  1734  056F                     u3950:
  1735                           	
  1736  056F                     l3052:	
  1737  056F  086D               	movf	((getlogicseq@num+1)^080h),w
  1738  0570  046C               	iorwf	((getlogicseq@num)^080h),w
  1739  0571  1D03               	skipz
  1740  0572  2D74               	goto	u3961
  1741  0573  2D75               	goto	u3960
  1742  0574                     u3961:
  1743  0574  2DE2               	goto	l3070
  1744  0575                     u3960:
  1745  0575  2D76               	goto	l3054
  1746                           	
  1747  0576                     l699:	
  1748                           	line	175
  1749                           	
  1750  0576                     l3054:	
  1751                           ;lcd1.c: 175: if(wf==0)
  1752  0576  0869               	movf	((getlogicseq@wf+1)^080h),w
  1753  0577  0468               	iorwf	((getlogicseq@wf)^080h),w
  1754  0578  1D03               	skipz
  1755  0579  2D7B               	goto	u3971
  1756  057A  2D7C               	goto	u3970
  1757  057B                     u3971:
  1758  057B  2DE5               	goto	l3072
  1759  057C                     u3970:
  1760                           	line	176
  1761                           	
  1762  057C                     l3056:	
  1763                           ;lcd1.c: 176: { if(ccount==0)
  1764  057C  086B               	movf	((getlogicseq@ccount+1)^080h),w
  1765  057D  046A               	iorwf	((getlogicseq@ccount)^080h),w
  1766  057E  1D03               	skipz
  1767  057F  2D81               	goto	u3981
  1768  0580  2D82               	goto	u3980
  1769  0581                     u3981:
  1770  0581  2D8F               	goto	l3060
  1771  0582                     u3980:
  1772                           	line	177
  1773                           	
  1774  0582                     l3058:	
  1775                           ;lcd1.c: 177: strcpy(logic_d2,"");
  1776  0582  303C               	movlw	((STR_6-__stringbase))&0ffh
  1777  0583  1283               	bcf	status, 5	;RP0=0, select bank0
  1778  0584  1303               	bcf	status, 6	;RP1=0, select bank0
  1779  0585  00DC               	movwf	(??_getlogicseq+0)+0
  1780  0586  085C               	movf	(??_getlogicseq+0)+0,w
  1781  0587  00F0               	movwf	(?_strcpy)
  1782  0588  30D7               	movlw	(getlogicseq@logic_d2)&0ffh
  1783  0589  120A  158A  249E   	fcall	_strcpy
              120A  118A         
  1784  058E  2D8F               	goto	l3060
  1785                           	
  1786  058F                     l701:	
  1787                           	line	178
  1788                           	
  1789  058F                     l3060:	
  1790                           ;lcd1.c: 178: write("----",2,0);
  1791  058F  3079               	movlw	low((STR_7-__stringbase))
  1792  0590  1283               	bcf	status, 5	;RP0=0, select bank0
  1793  0591  1303               	bcf	status, 6	;RP1=0, select bank0
  1794  0592  00C2               	movwf	(?_write)
  1795  0593  3080               	movlw	80h
  1796  0594  00C3               	movwf	(?_write+1)
  1797  0595  3002               	movlw	low(02h)
  1798  0596  00C4               	movwf	0+(?_write)+02h
  1799  0597  3000               	movlw	high(02h)
  1800  0598  00C5               	movwf	(0+(?_write)+02h)+1
  1801  0599  3000               	movlw	low(0)
  1802  059A  00C6               	movwf	0+(?_write)+04h
  1803  059B  3000               	movlw	high(0)
  1804  059C  00C7               	movwf	(0+(?_write)+04h)+1
  1805  059D  120A  158A  25F4   	fcall	_write
              120A  118A         
  1806                           	line	179
  1807                           	
  1808  05A2                     l3062:	
  1809                           ;lcd1.c: 179: itoaa(num, snum);
  1810  05A2  1683               	bsf	status, 5	;RP0=1, select bank1
  1811  05A3  1303               	bcf	status, 6	;RP1=0, select bank1
  1812  05A4  086D               	movf	(getlogicseq@num+1)^080h,w
  1813  05A5  01FA               	clrf	(?_itoaa+1)
  1814  05A6  07FA               	addwf	(?_itoaa+1)
  1815  05A7  086C               	movf	(getlogicseq@num)^080h,w
  1816  05A8  01F9               	clrf	(?_itoaa)
  1817  05A9  07F9               	addwf	(?_itoaa)
  1818                           
  1819  05AA  30C2               	movlw	(getlogicseq@snum)&0ffh
  1820  05AB  1283               	bcf	status, 5	;RP0=0, select bank0
  1821  05AC  1303               	bcf	status, 6	;RP1=0, select bank0
  1822  05AD  00DC               	movwf	(??_getlogicseq+0)+0
  1823  05AE  085C               	movf	(??_getlogicseq+0)+0,w
  1824  05AF  00FB               	movwf	0+(?_itoaa)+02h
  1825  05B0  120A  118A  218B   	fcall	_itoaa
              120A  118A         
  1826                           	line	180
  1827                           ;lcd1.c: 180: strcat(logic_d2,snum);
  1828  05B5  30C2               	movlw	(getlogicseq@snum)&0ffh
  1829  05B6  1283               	bcf	status, 5	;RP0=0, select bank0
  1830  05B7  1303               	bcf	status, 6	;RP1=0, select bank0
  1831  05B8  00DC               	movwf	(??_getlogicseq+0)+0
  1832  05B9  085C               	movf	(??_getlogicseq+0)+0,w
  1833  05BA  00F0               	movwf	(?_strcat)
  1834  05BB  30D7               	movlw	(getlogicseq@logic_d2)&0ffh
  1835  05BC  120A  158A  2530   	fcall	_strcat
              120A  118A         
  1836                           	line	181
  1837                           	
  1838  05C1                     l3064:	
  1839                           ;lcd1.c: 181: write( logic_d2,2,0); ;
  1840  05C1  30D7               	movlw	(getlogicseq@logic_d2&0ffh)
  1841  05C2  1283               	bcf	status, 5	;RP0=0, select bank0
  1842  05C3  1303               	bcf	status, 6	;RP1=0, select bank0
  1843  05C4  00C2               	movwf	(?_write)
  1844  05C5  3000               	movlw	(0x1/2)
  1845  05C6  00C3               	movwf	(?_write+1)
  1846  05C7  3002               	movlw	low(02h)
  1847  05C8  00C4               	movwf	0+(?_write)+02h
  1848  05C9  3000               	movlw	high(02h)
  1849  05CA  00C5               	movwf	(0+(?_write)+02h)+1
  1850  05CB  3000               	movlw	low(0)
  1851  05CC  00C6               	movwf	0+(?_write)+04h
  1852  05CD  3000               	movlw	high(0)
  1853  05CE  00C7               	movwf	(0+(?_write)+04h)+1
  1854  05CF  120A  158A  25F4   	fcall	_write
              120A  118A         
  1855                           	line	182
  1856                           	
  1857  05D4                     l3066:	
  1858                           ;lcd1.c: 182: wf=1;
  1859  05D4  3001               	movlw	low(01h)
  1860  05D5  1683               	bsf	status, 5	;RP0=1, select bank1
  1861  05D6  1303               	bcf	status, 6	;RP1=0, select bank1
  1862  05D7  00E8               	movwf	(getlogicseq@wf)^080h
  1863  05D8  3000               	movlw	high(01h)
  1864  05D9  00E9               	movwf	((getlogicseq@wf)^080h)+1
  1865                           	line	183
  1866                           	
  1867  05DA                     l3068:	
  1868                           ;lcd1.c: 183: ccount++;
  1869  05DA  3001               	movlw	low(01h)
  1870  05DB  07EA               	addwf	(getlogicseq@ccount)^080h,f
  1871  05DC  1803               	skipnc
  1872  05DD  0AEB               	incf	(getlogicseq@ccount+1)^080h,f
  1873  05DE  3000               	movlw	high(01h)
  1874  05DF  07EB               	addwf	(getlogicseq@ccount+1)^080h,f
  1875  05E0  2DE5               	goto	l3072
  1876                           	line	184
  1877                           	
  1878  05E1                     l700:	
  1879                           	line	185
  1880                           ;lcd1.c: 184: }
  1881                           ;lcd1.c: 185: }
  1882  05E1  2DE5               	goto	l3072
  1883                           	line	186
  1884                           	
  1885  05E2                     l697:	
  1886                           	line	187
  1887                           	
  1888  05E2                     l3070:	
  1889                           ;lcd1.c: 186: else{
  1890                           ;lcd1.c: 187: wf=0;
  1891  05E2  01E8               	clrf	(getlogicseq@wf)^080h
  1892  05E3  01E9               	clrf	(getlogicseq@wf+1)^080h
  1893  05E4  2DE5               	goto	l3072
  1894                           	line	188
  1895                           	
  1896  05E5                     l702:	
  1897                           	line	189
  1898                           	
  1899  05E5                     l3072:	
  1900                           ;lcd1.c: 188: }
  1901                           ;lcd1.c: 189: if(ccount>3)
  1902  05E5  086B               	movf	(getlogicseq@ccount+1)^080h,w
  1903  05E6  3A80               	xorlw	80h
  1904  05E7  00FF               	movwf	btemp+1
  1905  05E8  3080               	movlw	(high(04h))^80h
  1906  05E9  027F               	subwf	btemp+1,w
  1907  05EA  1D03               	skipz
  1908  05EB  2DEE               	goto	u3995
  1909  05EC  3004               	movlw	low(04h)
  1910  05ED  026A               	subwf	(getlogicseq@ccount)^080h,w
  1911  05EE                     u3995:
  1912                           
  1913  05EE  1C03               	skipc
  1914  05EF  2DF1               	goto	u3991
  1915  05F0  2DF2               	goto	u3990
  1916  05F1                     u3991:
  1917  05F1  2DF4               	goto	l3076
  1918  05F2                     u3990:
  1919  05F2  2E16               	goto	l3086
  1920                           	line	190
  1921                           	
  1922  05F3                     l3074:	
  1923                           ;lcd1.c: 190: break;
  1924  05F3  2E16               	goto	l3086
  1925                           	
  1926  05F4                     l703:	
  1927                           	line	192
  1928                           	
  1929  05F4                     l3076:	
  1930                           ;lcd1.c: 192: if(num==2)
  1931  05F4  3002               	movlw	02h
  1932  05F5  1683               	bsf	status, 5	;RP0=1, select bank1
  1933  05F6  1303               	bcf	status, 6	;RP1=0, select bank1
  1934  05F7  066C               	xorwf	(getlogicseq@num)^080h,w
  1935  05F8  046D               	iorwf	(getlogicseq@num+1)^080h,w
  1936  05F9  1D03               	skipz
  1937  05FA  2DFC               	goto	u4001
  1938  05FB  2DFD               	goto	u4000
  1939  05FC                     u4001:
  1940  05FC  2E09               	goto	l3082
  1941  05FD                     u4000:
  1942                           	line	194
  1943                           	
  1944  05FD                     l3078:	
  1945                           ;lcd1.c: 193: {
  1946                           ;lcd1.c: 194: if(nf==0){
  1947  05FD  0867               	movf	((getlogicseq@nf+1)^080h),w
  1948  05FE  0466               	iorwf	((getlogicseq@nf)^080h),w
  1949  05FF  1D03               	skipz
  1950  0600  2E02               	goto	u4011
  1951  0601  2E03               	goto	u4010
  1952  0602                     u4011:
  1953  0602  2D5B               	goto	l3048
  1954  0603                     u4010:
  1955                           	line	195
  1956                           	
  1957  0603                     l3080:	
  1958                           ;lcd1.c: 195: nf=1;
  1959  0603  3001               	movlw	low(01h)
  1960  0604  00E6               	movwf	(getlogicseq@nf)^080h
  1961  0605  3000               	movlw	high(01h)
  1962  0606  00E7               	movwf	((getlogicseq@nf)^080h)+1
  1963                           	line	196
  1964                           ;lcd1.c: 196: break;
  1965  0607  2E16               	goto	l3086
  1966                           	line	197
  1967                           	
  1968  0608                     l706:	
  1969                           	line	198
  1970                           ;lcd1.c: 197: }
  1971                           ;lcd1.c: 198: }
  1972  0608  2D5B               	goto	l3048
  1973                           	line	199
  1974                           	
  1975  0609                     l705:	
  1976                           	
  1977  0609                     l3082:	
  1978                           ;lcd1.c: 199: else if(num==99){
  1979  0609  3063               	movlw	063h
  1980  060A  066C               	xorwf	(getlogicseq@num)^080h,w
  1981  060B  046D               	iorwf	(getlogicseq@num+1)^080h,w
  1982  060C  1D03               	skipz
  1983  060D  2E0F               	goto	u4021
  1984  060E  2E10               	goto	u4020
  1985  060F                     u4021:
  1986  060F  2D5B               	goto	l3048
  1987  0610                     u4020:
  1988                           	line	200
  1989                           	
  1990  0610                     l3084:	
  1991                           ;lcd1.c: 200: nf=0;
  1992  0610  01E6               	clrf	(getlogicseq@nf)^080h
  1993  0611  01E7               	clrf	(getlogicseq@nf+1)^080h
  1994  0612  2D5B               	goto	l3048
  1995                           	line	201
  1996                           	
  1997  0613                     l708:	
  1998  0613  2D5B               	goto	l3048
  1999                           	line	202
  2000                           	
  2001  0614                     l707:	
  2002  0614  2D5B               	goto	l3048
  2003                           	
  2004  0615                     l709:	
  2005                           	line	171
  2006  0615  2D5B               	goto	l3048
  2007                           	
  2008  0616                     l704:	
  2009                           	line	205
  2010                           	
  2011  0616                     l3086:	
  2012                           ;lcd1.c: 201: }
  2013                           ;lcd1.c: 202: }
  2014                           ;lcd1.c: 205: wf=0;ccount=0;
  2015  0616  1683               	bsf	status, 5	;RP0=1, select bank1
  2016  0617  1303               	bcf	status, 6	;RP1=0, select bank1
  2017  0618  01E8               	clrf	(getlogicseq@wf)^080h
  2018  0619  01E9               	clrf	(getlogicseq@wf+1)^080h
  2019  061A  01EA               	clrf	(getlogicseq@ccount)^080h
  2020  061B  01EB               	clrf	(getlogicseq@ccount+1)^080h
  2021                           	line	206
  2022                           	
  2023  061C                     l3088:	
  2024                           ;lcd1.c: 206: strcpy(str,"Enter Logic DEV3:  ");
  2025  061C  3051               	movlw	((STR_8-__stringbase))&0ffh
  2026  061D  1283               	bcf	status, 5	;RP0=0, select bank0
  2027  061E  1303               	bcf	status, 6	;RP1=0, select bank0
  2028  061F  00DC               	movwf	(??_getlogicseq+0)+0
  2029  0620  085C               	movf	(??_getlogicseq+0)+0,w
  2030  0621  00F0               	movwf	(?_strcpy)
  2031  0622  30A0               	movlw	(getlogicseq@str)&0ffh
  2032  0623  120A  158A  249E   	fcall	_strcpy
              120A  118A         
  2033                           	line	207
  2034                           	
  2035  0628                     l3090:	
  2036                           ;lcd1.c: 207: write(str,1,1);
  2037  0628  30A0               	movlw	(getlogicseq@str&0ffh)
  2038  0629  1283               	bcf	status, 5	;RP0=0, select bank0
  2039  062A  1303               	bcf	status, 6	;RP1=0, select bank0
  2040  062B  00C2               	movwf	(?_write)
  2041  062C  3000               	movlw	(0x1/2)
  2042  062D  00C3               	movwf	(?_write+1)
  2043  062E  3001               	movlw	low(01h)
  2044  062F  00C4               	movwf	0+(?_write)+02h
  2045  0630  3000               	movlw	high(01h)
  2046  0631  00C5               	movwf	(0+(?_write)+02h)+1
  2047  0632  3001               	movlw	low(01h)
  2048  0633  00C6               	movwf	0+(?_write)+04h
  2049  0634  3000               	movlw	high(01h)
  2050  0635  00C7               	movwf	(0+(?_write)+04h)+1
  2051  0636  120A  158A  25F4   	fcall	_write
              120A  118A         
  2052                           	line	208
  2053                           	
  2054  063B                     l3092:	
  2055                           ;lcd1.c: 208: write(logic_d3,2,0);
  2056  063B  30DC               	movlw	(getlogicseq@logic_d3&0ffh)
  2057  063C  1283               	bcf	status, 5	;RP0=0, select bank0
  2058  063D  1303               	bcf	status, 6	;RP1=0, select bank0
  2059  063E  00C2               	movwf	(?_write)
  2060  063F  3000               	movlw	(0x1/2)
  2061  0640  00C3               	movwf	(?_write+1)
  2062  0641  3002               	movlw	low(02h)
  2063  0642  00C4               	movwf	0+(?_write)+02h
  2064  0643  3000               	movlw	high(02h)
  2065  0644  00C5               	movwf	(0+(?_write)+02h)+1
  2066  0645  3000               	movlw	low(0)
  2067  0646  00C6               	movwf	0+(?_write)+04h
  2068  0647  3000               	movlw	high(0)
  2069  0648  00C7               	movwf	(0+(?_write)+04h)+1
  2070  0649  120A  158A  25F4   	fcall	_write
              120A  118A         
  2071  064E  2E4F               	goto	l3094
  2072                           	line	210
  2073                           ;lcd1.c: 210: while(1)
  2074                           	
  2075  064F                     l710:	
  2076                           	line	212
  2077                           	
  2078  064F                     l3094:	
  2079                           ;lcd1.c: 211: {
  2080                           ;lcd1.c: 212: num=scan();
  2081  064F  120A  118A  20A3   	fcall	_scan
              120A  118A         
  2082  0654  0875               	movf	(1+(?_scan)),w
  2083  0655  1683               	bsf	status, 5	;RP0=1, select bank1
  2084  0656  1303               	bcf	status, 6	;RP1=0, select bank1
  2085  0657  01ED               	clrf	(getlogicseq@num+1)^080h
  2086  0658  07ED               	addwf	(getlogicseq@num+1)^080h
  2087  0659  0874               	movf	(0+(?_scan)),w
  2088  065A  01EC               	clrf	(getlogicseq@num)^080h
  2089  065B  07EC               	addwf	(getlogicseq@num)^080h
  2090                           
  2091                           	line	213
  2092                           	
  2093  065C                     l3096:	
  2094                           ;lcd1.c: 213: if(num==1||num==0){
  2095  065C  3001               	movlw	01h
  2096  065D  066C               	xorwf	(getlogicseq@num)^080h,w
  2097  065E  046D               	iorwf	(getlogicseq@num+1)^080h,w
  2098  065F  1903               	skipnz
  2099  0660  2E62               	goto	u4031
  2100  0661  2E63               	goto	u4030
  2101  0662                     u4031:
  2102  0662  2E6A               	goto	l3100
  2103  0663                     u4030:
  2104                           	
  2105  0663                     l3098:	
  2106  0663  086D               	movf	((getlogicseq@num+1)^080h),w
  2107  0664  046C               	iorwf	((getlogicseq@num)^080h),w
  2108  0665  1D03               	skipz
  2109  0666  2E68               	goto	u4041
  2110  0667  2E69               	goto	u4040
  2111  0668                     u4041:
  2112  0668  2ED6               	goto	l3116
  2113  0669                     u4040:
  2114  0669  2E6A               	goto	l3100
  2115                           	
  2116  066A                     l713:	
  2117                           	line	214
  2118                           	
  2119  066A                     l3100:	
  2120                           ;lcd1.c: 214: if(wf==0)
  2121  066A  0869               	movf	((getlogicseq@wf+1)^080h),w
  2122  066B  0468               	iorwf	((getlogicseq@wf)^080h),w
  2123  066C  1D03               	skipz
  2124  066D  2E6F               	goto	u4051
  2125  066E  2E70               	goto	u4050
  2126  066F                     u4051:
  2127  066F  2ED9               	goto	l3118
  2128  0670                     u4050:
  2129                           	line	215
  2130                           	
  2131  0670                     l3102:	
  2132                           ;lcd1.c: 215: { if(ccount==0)
  2133  0670  086B               	movf	((getlogicseq@ccount+1)^080h),w
  2134  0671  046A               	iorwf	((getlogicseq@ccount)^080h),w
  2135  0672  1D03               	skipz
  2136  0673  2E75               	goto	u4061
  2137  0674  2E76               	goto	u4060
  2138  0675                     u4061:
  2139  0675  2E83               	goto	l3106
  2140  0676                     u4060:
  2141                           	line	216
  2142                           	
  2143  0676                     l3104:	
  2144                           ;lcd1.c: 216: strcpy(logic_d3,"");
  2145  0676  303C               	movlw	((STR_9-__stringbase))&0ffh
  2146  0677  1283               	bcf	status, 5	;RP0=0, select bank0
  2147  0678  1303               	bcf	status, 6	;RP1=0, select bank0
  2148  0679  00DC               	movwf	(??_getlogicseq+0)+0
  2149  067A  085C               	movf	(??_getlogicseq+0)+0,w
  2150  067B  00F0               	movwf	(?_strcpy)
  2151  067C  30DC               	movlw	(getlogicseq@logic_d3)&0ffh
  2152  067D  120A  158A  249E   	fcall	_strcpy
              120A  118A         
  2153  0682  2E83               	goto	l3106
  2154                           	
  2155  0683                     l715:	
  2156                           	line	217
  2157                           	
  2158  0683                     l3106:	
  2159                           ;lcd1.c: 217: write("----",2,0);
  2160  0683  3079               	movlw	low((STR_10-__stringbase))
  2161  0684  1283               	bcf	status, 5	;RP0=0, select bank0
  2162  0685  1303               	bcf	status, 6	;RP1=0, select bank0
  2163  0686  00C2               	movwf	(?_write)
  2164  0687  3080               	movlw	80h
  2165  0688  00C3               	movwf	(?_write+1)
  2166  0689  3002               	movlw	low(02h)
  2167  068A  00C4               	movwf	0+(?_write)+02h
  2168  068B  3000               	movlw	high(02h)
  2169  068C  00C5               	movwf	(0+(?_write)+02h)+1
  2170  068D  3000               	movlw	low(0)
  2171  068E  00C6               	movwf	0+(?_write)+04h
  2172  068F  3000               	movlw	high(0)
  2173  0690  00C7               	movwf	(0+(?_write)+04h)+1
  2174  0691  120A  158A  25F4   	fcall	_write
              120A  118A         
  2175                           	line	218
  2176                           	
  2177  0696                     l3108:	
  2178                           ;lcd1.c: 218: itoaa(num, snum);
  2179  0696  1683               	bsf	status, 5	;RP0=1, select bank1
  2180  0697  1303               	bcf	status, 6	;RP1=0, select bank1
  2181  0698  086D               	movf	(getlogicseq@num+1)^080h,w
  2182  0699  01FA               	clrf	(?_itoaa+1)
  2183  069A  07FA               	addwf	(?_itoaa+1)
  2184  069B  086C               	movf	(getlogicseq@num)^080h,w
  2185  069C  01F9               	clrf	(?_itoaa)
  2186  069D  07F9               	addwf	(?_itoaa)
  2187                           
  2188  069E  30C2               	movlw	(getlogicseq@snum)&0ffh
  2189  069F  1283               	bcf	status, 5	;RP0=0, select bank0
  2190  06A0  1303               	bcf	status, 6	;RP1=0, select bank0
  2191  06A1  00DC               	movwf	(??_getlogicseq+0)+0
  2192  06A2  085C               	movf	(??_getlogicseq+0)+0,w
  2193  06A3  00FB               	movwf	0+(?_itoaa)+02h
  2194  06A4  120A  118A  218B   	fcall	_itoaa
              120A  118A         
  2195                           	line	219
  2196                           ;lcd1.c: 219: strcat(logic_d3,snum);
  2197  06A9  30C2               	movlw	(getlogicseq@snum)&0ffh
  2198  06AA  1283               	bcf	status, 5	;RP0=0, select bank0
  2199  06AB  1303               	bcf	status, 6	;RP1=0, select bank0
  2200  06AC  00DC               	movwf	(??_getlogicseq+0)+0
  2201  06AD  085C               	movf	(??_getlogicseq+0)+0,w
  2202  06AE  00F0               	movwf	(?_strcat)
  2203  06AF  30DC               	movlw	(getlogicseq@logic_d3)&0ffh
  2204  06B0  120A  158A  2530   	fcall	_strcat
              120A  118A         
  2205                           	line	220
  2206                           	
  2207  06B5                     l3110:	
  2208                           ;lcd1.c: 220: write( logic_d3,2,0); ;
  2209  06B5  30DC               	movlw	(getlogicseq@logic_d3&0ffh)
  2210  06B6  1283               	bcf	status, 5	;RP0=0, select bank0
  2211  06B7  1303               	bcf	status, 6	;RP1=0, select bank0
  2212  06B8  00C2               	movwf	(?_write)
  2213  06B9  3000               	movlw	(0x1/2)
  2214  06BA  00C3               	movwf	(?_write+1)
  2215  06BB  3002               	movlw	low(02h)
  2216  06BC  00C4               	movwf	0+(?_write)+02h
  2217  06BD  3000               	movlw	high(02h)
  2218  06BE  00C5               	movwf	(0+(?_write)+02h)+1
  2219  06BF  3000               	movlw	low(0)
  2220  06C0  00C6               	movwf	0+(?_write)+04h
  2221  06C1  3000               	movlw	high(0)
  2222  06C2  00C7               	movwf	(0+(?_write)+04h)+1
  2223  06C3  120A  158A  25F4   	fcall	_write
              120A  118A         
  2224                           	line	221
  2225                           	
  2226  06C8                     l3112:	
  2227                           ;lcd1.c: 221: wf=1;
  2228  06C8  3001               	movlw	low(01h)
  2229  06C9  1683               	bsf	status, 5	;RP0=1, select bank1
  2230  06CA  1303               	bcf	status, 6	;RP1=0, select bank1
  2231  06CB  00E8               	movwf	(getlogicseq@wf)^080h
  2232  06CC  3000               	movlw	high(01h)
  2233  06CD  00E9               	movwf	((getlogicseq@wf)^080h)+1
  2234                           	line	222
  2235                           	
  2236  06CE                     l3114:	
  2237                           ;lcd1.c: 222: ccount++;
  2238  06CE  3001               	movlw	low(01h)
  2239  06CF  07EA               	addwf	(getlogicseq@ccount)^080h,f
  2240  06D0  1803               	skipnc
  2241  06D1  0AEB               	incf	(getlogicseq@ccount+1)^080h,f
  2242  06D2  3000               	movlw	high(01h)
  2243  06D3  07EB               	addwf	(getlogicseq@ccount+1)^080h,f
  2244  06D4  2ED9               	goto	l3118
  2245                           	line	223
  2246                           	
  2247  06D5                     l714:	
  2248                           	line	224
  2249                           ;lcd1.c: 223: }
  2250                           ;lcd1.c: 224: }
  2251  06D5  2ED9               	goto	l3118
  2252                           	line	225
  2253                           	
  2254  06D6                     l711:	
  2255                           	line	226
  2256                           	
  2257  06D6                     l3116:	
  2258                           ;lcd1.c: 225: else{
  2259                           ;lcd1.c: 226: wf=0;
  2260  06D6  01E8               	clrf	(getlogicseq@wf)^080h
  2261  06D7  01E9               	clrf	(getlogicseq@wf+1)^080h
  2262  06D8  2ED9               	goto	l3118
  2263                           	line	227
  2264                           	
  2265  06D9                     l716:	
  2266                           	line	228
  2267                           	
  2268  06D9                     l3118:	
  2269                           ;lcd1.c: 227: }
  2270                           ;lcd1.c: 228: if(ccount>3)
  2271  06D9  086B               	movf	(getlogicseq@ccount+1)^080h,w
  2272  06DA  3A80               	xorlw	80h
  2273  06DB  00FF               	movwf	btemp+1
  2274  06DC  3080               	movlw	(high(04h))^80h
  2275  06DD  027F               	subwf	btemp+1,w
  2276  06DE  1D03               	skipz
  2277  06DF  2EE2               	goto	u4075
  2278  06E0  3004               	movlw	low(04h)
  2279  06E1  026A               	subwf	(getlogicseq@ccount)^080h,w
  2280  06E2                     u4075:
  2281                           
  2282  06E2  1C03               	skipc
  2283  06E3  2EE5               	goto	u4071
  2284  06E4  2EE6               	goto	u4070
  2285  06E5                     u4071:
  2286  06E5  2EE8               	goto	l3122
  2287  06E6                     u4070:
  2288  06E6  2F0A               	goto	l3132
  2289                           	line	229
  2290                           	
  2291  06E7                     l3120:	
  2292                           ;lcd1.c: 229: break;
  2293  06E7  2F0A               	goto	l3132
  2294                           	
  2295  06E8                     l717:	
  2296                           	line	231
  2297                           	
  2298  06E8                     l3122:	
  2299                           ;lcd1.c: 231: if(num==2)
  2300  06E8  3002               	movlw	02h
  2301  06E9  1683               	bsf	status, 5	;RP0=1, select bank1
  2302  06EA  1303               	bcf	status, 6	;RP1=0, select bank1
  2303  06EB  066C               	xorwf	(getlogicseq@num)^080h,w
  2304  06EC  046D               	iorwf	(getlogicseq@num+1)^080h,w
  2305  06ED  1D03               	skipz
  2306  06EE  2EF0               	goto	u4081
  2307  06EF  2EF1               	goto	u4080
  2308  06F0                     u4081:
  2309  06F0  2EFD               	goto	l3128
  2310  06F1                     u4080:
  2311                           	line	233
  2312                           	
  2313  06F1                     l3124:	
  2314                           ;lcd1.c: 232: {
  2315                           ;lcd1.c: 233: if(nf==0){
  2316  06F1  0867               	movf	((getlogicseq@nf+1)^080h),w
  2317  06F2  0466               	iorwf	((getlogicseq@nf)^080h),w
  2318  06F3  1D03               	skipz
  2319  06F4  2EF6               	goto	u4091
  2320  06F5  2EF7               	goto	u4090
  2321  06F6                     u4091:
  2322  06F6  2E4F               	goto	l3094
  2323  06F7                     u4090:
  2324                           	line	234
  2325                           	
  2326  06F7                     l3126:	
  2327                           ;lcd1.c: 234: nf=1;
  2328  06F7  3001               	movlw	low(01h)
  2329  06F8  00E6               	movwf	(getlogicseq@nf)^080h
  2330  06F9  3000               	movlw	high(01h)
  2331  06FA  00E7               	movwf	((getlogicseq@nf)^080h)+1
  2332                           	line	235
  2333                           ;lcd1.c: 235: break;
  2334  06FB  2F0A               	goto	l3132
  2335                           	line	236
  2336                           	
  2337  06FC                     l720:	
  2338                           	line	237
  2339                           ;lcd1.c: 236: }
  2340                           ;lcd1.c: 237: }
  2341  06FC  2E4F               	goto	l3094
  2342                           	line	238
  2343                           	
  2344  06FD                     l719:	
  2345                           	
  2346  06FD                     l3128:	
  2347                           ;lcd1.c: 238: else if(num==99){
  2348  06FD  3063               	movlw	063h
  2349  06FE  066C               	xorwf	(getlogicseq@num)^080h,w
  2350  06FF  046D               	iorwf	(getlogicseq@num+1)^080h,w
  2351  0700  1D03               	skipz
  2352  0701  2F03               	goto	u4101
  2353  0702  2F04               	goto	u4100
  2354  0703                     u4101:
  2355  0703  2E4F               	goto	l3094
  2356  0704                     u4100:
  2357                           	line	239
  2358                           	
  2359  0704                     l3130:	
  2360                           ;lcd1.c: 239: nf=0;
  2361  0704  01E6               	clrf	(getlogicseq@nf)^080h
  2362  0705  01E7               	clrf	(getlogicseq@nf+1)^080h
  2363  0706  2E4F               	goto	l3094
  2364                           	line	240
  2365                           	
  2366  0707                     l722:	
  2367  0707  2E4F               	goto	l3094
  2368                           	line	241
  2369                           	
  2370  0708                     l721:	
  2371  0708  2E4F               	goto	l3094
  2372                           	
  2373  0709                     l723:	
  2374                           	line	210
  2375  0709  2E4F               	goto	l3094
  2376                           	
  2377  070A                     l718:	
  2378                           	line	245
  2379                           	
  2380  070A                     l3132:	
  2381                           ;lcd1.c: 240: }
  2382                           ;lcd1.c: 241: }
  2383                           ;lcd1.c: 245: wf=0;ccount=0;
  2384  070A  1683               	bsf	status, 5	;RP0=1, select bank1
  2385  070B  1303               	bcf	status, 6	;RP1=0, select bank1
  2386  070C  01E8               	clrf	(getlogicseq@wf)^080h
  2387  070D  01E9               	clrf	(getlogicseq@wf+1)^080h
  2388  070E  01EA               	clrf	(getlogicseq@ccount)^080h
  2389  070F  01EB               	clrf	(getlogicseq@ccount+1)^080h
  2390                           	line	246
  2391                           	
  2392  0710                     l3134:	
  2393                           ;lcd1.c: 246: strcpy(str,"Enter Logic DEV4:  ");
  2394  0710  3065               	movlw	((STR_11-__stringbase))&0ffh
  2395  0711  1283               	bcf	status, 5	;RP0=0, select bank0
  2396  0712  1303               	bcf	status, 6	;RP1=0, select bank0
  2397  0713  00DC               	movwf	(??_getlogicseq+0)+0
  2398  0714  085C               	movf	(??_getlogicseq+0)+0,w
  2399  0715  00F0               	movwf	(?_strcpy)
  2400  0716  30A0               	movlw	(getlogicseq@str)&0ffh
  2401  0717  120A  158A  249E   	fcall	_strcpy
              120A  118A         
  2402                           	line	247
  2403                           	
  2404  071C                     l3136:	
  2405                           ;lcd1.c: 247: write(str,1,1);
  2406  071C  30A0               	movlw	(getlogicseq@str&0ffh)
  2407  071D  1283               	bcf	status, 5	;RP0=0, select bank0
  2408  071E  1303               	bcf	status, 6	;RP1=0, select bank0
  2409  071F  00C2               	movwf	(?_write)
  2410  0720  3000               	movlw	(0x1/2)
  2411  0721  00C3               	movwf	(?_write+1)
  2412  0722  3001               	movlw	low(01h)
  2413  0723  00C4               	movwf	0+(?_write)+02h
  2414  0724  3000               	movlw	high(01h)
  2415  0725  00C5               	movwf	(0+(?_write)+02h)+1
  2416  0726  3001               	movlw	low(01h)
  2417  0727  00C6               	movwf	0+(?_write)+04h
  2418  0728  3000               	movlw	high(01h)
  2419  0729  00C7               	movwf	(0+(?_write)+04h)+1
  2420  072A  120A  158A  25F4   	fcall	_write
              120A  118A         
  2421                           	line	248
  2422                           	
  2423  072F                     l3138:	
  2424                           ;lcd1.c: 248: write(logic_d4,2,0);
  2425  072F  30E1               	movlw	(getlogicseq@logic_d4&0ffh)
  2426  0730  1283               	bcf	status, 5	;RP0=0, select bank0
  2427  0731  1303               	bcf	status, 6	;RP1=0, select bank0
  2428  0732  00C2               	movwf	(?_write)
  2429  0733  3000               	movlw	(0x1/2)
  2430  0734  00C3               	movwf	(?_write+1)
  2431  0735  3002               	movlw	low(02h)
  2432  0736  00C4               	movwf	0+(?_write)+02h
  2433  0737  3000               	movlw	high(02h)
  2434  0738  00C5               	movwf	(0+(?_write)+02h)+1
  2435  0739  3000               	movlw	low(0)
  2436  073A  00C6               	movwf	0+(?_write)+04h
  2437  073B  3000               	movlw	high(0)
  2438  073C  00C7               	movwf	(0+(?_write)+04h)+1
  2439  073D  120A  158A  25F4   	fcall	_write
              120A  118A         
  2440  0742  2F43               	goto	l3140
  2441                           	line	250
  2442                           ;lcd1.c: 250: while(1)
  2443                           	
  2444  0743                     l724:	
  2445                           	line	252
  2446                           	
  2447  0743                     l3140:	
  2448                           ;lcd1.c: 251: {
  2449                           ;lcd1.c: 252: num=scan();
  2450  0743  120A  118A  20A3   	fcall	_scan
              120A  118A         
  2451  0748  0875               	movf	(1+(?_scan)),w
  2452  0749  1683               	bsf	status, 5	;RP0=1, select bank1
  2453  074A  1303               	bcf	status, 6	;RP1=0, select bank1
  2454  074B  01ED               	clrf	(getlogicseq@num+1)^080h
  2455  074C  07ED               	addwf	(getlogicseq@num+1)^080h
  2456  074D  0874               	movf	(0+(?_scan)),w
  2457  074E  01EC               	clrf	(getlogicseq@num)^080h
  2458  074F  07EC               	addwf	(getlogicseq@num)^080h
  2459                           
  2460                           	line	253
  2461                           	
  2462  0750                     l3142:	
  2463                           ;lcd1.c: 253: if(num==1||num==0){
  2464  0750  3001               	movlw	01h
  2465  0751  066C               	xorwf	(getlogicseq@num)^080h,w
  2466  0752  046D               	iorwf	(getlogicseq@num+1)^080h,w
  2467  0753  1903               	skipnz
  2468  0754  2F56               	goto	u4111
  2469  0755  2F57               	goto	u4110
  2470  0756                     u4111:
  2471  0756  2F5E               	goto	l3146
  2472  0757                     u4110:
  2473                           	
  2474  0757                     l3144:	
  2475  0757  086D               	movf	((getlogicseq@num+1)^080h),w
  2476  0758  046C               	iorwf	((getlogicseq@num)^080h),w
  2477  0759  1D03               	skipz
  2478  075A  2F5C               	goto	u4121
  2479  075B  2F5D               	goto	u4120
  2480  075C                     u4121:
  2481  075C  2FCA               	goto	l3162
  2482  075D                     u4120:
  2483  075D  2F5E               	goto	l3146
  2484                           	
  2485  075E                     l727:	
  2486                           	line	254
  2487                           	
  2488  075E                     l3146:	
  2489                           ;lcd1.c: 254: if(wf==0)
  2490  075E  0869               	movf	((getlogicseq@wf+1)^080h),w
  2491  075F  0468               	iorwf	((getlogicseq@wf)^080h),w
  2492  0760  1D03               	skipz
  2493  0761  2F63               	goto	u4131
  2494  0762  2F64               	goto	u4130
  2495  0763                     u4131:
  2496  0763  2FCD               	goto	l3164
  2497  0764                     u4130:
  2498                           	line	256
  2499                           	
  2500  0764                     l3148:	
  2501                           ;lcd1.c: 255: {
  2502                           ;lcd1.c: 256: if(ccount==0)
  2503  0764  086B               	movf	((getlogicseq@ccount+1)^080h),w
  2504  0765  046A               	iorwf	((getlogicseq@ccount)^080h),w
  2505  0766  1D03               	skipz
  2506  0767  2F69               	goto	u4141
  2507  0768  2F6A               	goto	u4140
  2508  0769                     u4141:
  2509  0769  2F77               	goto	l3152
  2510  076A                     u4140:
  2511                           	line	257
  2512                           	
  2513  076A                     l3150:	
  2514                           ;lcd1.c: 257: strcpy(logic_d4,"");
  2515  076A  303C               	movlw	((STR_12-__stringbase))&0ffh
  2516  076B  1283               	bcf	status, 5	;RP0=0, select bank0
  2517  076C  1303               	bcf	status, 6	;RP1=0, select bank0
  2518  076D  00DC               	movwf	(??_getlogicseq+0)+0
  2519  076E  085C               	movf	(??_getlogicseq+0)+0,w
  2520  076F  00F0               	movwf	(?_strcpy)
  2521  0770  30E1               	movlw	(getlogicseq@logic_d4)&0ffh
  2522  0771  120A  158A  249E   	fcall	_strcpy
              120A  118A         
  2523  0776  2F77               	goto	l3152
  2524                           	
  2525  0777                     l729:	
  2526                           	line	258
  2527                           	
  2528  0777                     l3152:	
  2529                           ;lcd1.c: 258: write("----",2,0);
  2530  0777  3079               	movlw	low((STR_13-__stringbase))
  2531  0778  1283               	bcf	status, 5	;RP0=0, select bank0
  2532  0779  1303               	bcf	status, 6	;RP1=0, select bank0
  2533  077A  00C2               	movwf	(?_write)
  2534  077B  3080               	movlw	80h
  2535  077C  00C3               	movwf	(?_write+1)
  2536  077D  3002               	movlw	low(02h)
  2537  077E  00C4               	movwf	0+(?_write)+02h
  2538  077F  3000               	movlw	high(02h)
  2539  0780  00C5               	movwf	(0+(?_write)+02h)+1
  2540  0781  3000               	movlw	low(0)
  2541  0782  00C6               	movwf	0+(?_write)+04h
  2542  0783  3000               	movlw	high(0)
  2543  0784  00C7               	movwf	(0+(?_write)+04h)+1
  2544  0785  120A  158A  25F4   	fcall	_write
              120A  118A         
  2545                           	line	259
  2546                           	
  2547  078A                     l3154:	
  2548                           ;lcd1.c: 259: itoaa(num, snum);
  2549  078A  1683               	bsf	status, 5	;RP0=1, select bank1
  2550  078B  1303               	bcf	status, 6	;RP1=0, select bank1
  2551  078C  086D               	movf	(getlogicseq@num+1)^080h,w
  2552  078D  01FA               	clrf	(?_itoaa+1)
  2553  078E  07FA               	addwf	(?_itoaa+1)
  2554  078F  086C               	movf	(getlogicseq@num)^080h,w
  2555  0790  01F9               	clrf	(?_itoaa)
  2556  0791  07F9               	addwf	(?_itoaa)
  2557                           
  2558  0792  30C2               	movlw	(getlogicseq@snum)&0ffh
  2559  0793  1283               	bcf	status, 5	;RP0=0, select bank0
  2560  0794  1303               	bcf	status, 6	;RP1=0, select bank0
  2561  0795  00DC               	movwf	(??_getlogicseq+0)+0
  2562  0796  085C               	movf	(??_getlogicseq+0)+0,w
  2563  0797  00FB               	movwf	0+(?_itoaa)+02h
  2564  0798  120A  118A  218B   	fcall	_itoaa
              120A  118A         
  2565                           	line	260
  2566                           ;lcd1.c: 260: strcat(logic_d4,snum);
  2567  079D  30C2               	movlw	(getlogicseq@snum)&0ffh
  2568  079E  1283               	bcf	status, 5	;RP0=0, select bank0
  2569  079F  1303               	bcf	status, 6	;RP1=0, select bank0
  2570  07A0  00DC               	movwf	(??_getlogicseq+0)+0
  2571  07A1  085C               	movf	(??_getlogicseq+0)+0,w
  2572  07A2  00F0               	movwf	(?_strcat)
  2573  07A3  30E1               	movlw	(getlogicseq@logic_d4)&0ffh
  2574  07A4  120A  158A  2530   	fcall	_strcat
              120A  118A         
  2575                           	line	261
  2576                           	
  2577  07A9                     l3156:	
  2578                           ;lcd1.c: 261: write( logic_d4,2,0); ;
  2579  07A9  30E1               	movlw	(getlogicseq@logic_d4&0ffh)
  2580  07AA  1283               	bcf	status, 5	;RP0=0, select bank0
  2581  07AB  1303               	bcf	status, 6	;RP1=0, select bank0
  2582  07AC  00C2               	movwf	(?_write)
  2583  07AD  3000               	movlw	(0x1/2)
  2584  07AE  00C3               	movwf	(?_write+1)
  2585  07AF  3002               	movlw	low(02h)
  2586  07B0  00C4               	movwf	0+(?_write)+02h
  2587  07B1  3000               	movlw	high(02h)
  2588  07B2  00C5               	movwf	(0+(?_write)+02h)+1
  2589  07B3  3000               	movlw	low(0)
  2590  07B4  00C6               	movwf	0+(?_write)+04h
  2591  07B5  3000               	movlw	high(0)
  2592  07B6  00C7               	movwf	(0+(?_write)+04h)+1
  2593  07B7  120A  158A  25F4   	fcall	_write
              120A  118A         
  2594                           	line	262
  2595                           	
  2596  07BC                     l3158:	
  2597                           ;lcd1.c: 262: wf=1;
  2598  07BC  3001               	movlw	low(01h)
  2599  07BD  1683               	bsf	status, 5	;RP0=1, select bank1
  2600  07BE  1303               	bcf	status, 6	;RP1=0, select bank1
  2601  07BF  00E8               	movwf	(getlogicseq@wf)^080h
  2602  07C0  3000               	movlw	high(01h)
  2603  07C1  00E9               	movwf	((getlogicseq@wf)^080h)+1
  2604                           	line	263
  2605                           	
  2606  07C2                     l3160:	
  2607                           ;lcd1.c: 263: ccount++;
  2608  07C2  3001               	movlw	low(01h)
  2609  07C3  07EA               	addwf	(getlogicseq@ccount)^080h,f
  2610  07C4  1803               	skipnc
  2611  07C5  0AEB               	incf	(getlogicseq@ccount+1)^080h,f
  2612  07C6  3000               	movlw	high(01h)
  2613  07C7  07EB               	addwf	(getlogicseq@ccount+1)^080h,f
  2614  07C8  2FCD               	goto	l3164
  2615                           	line	264
  2616                           	
  2617  07C9                     l728:	
  2618                           	line	265
  2619                           ;lcd1.c: 264: }
  2620                           ;lcd1.c: 265: }
  2621  07C9  2FCD               	goto	l3164
  2622                           	line	266
  2623                           	
  2624  07CA                     l725:	
  2625                           	line	267
  2626                           	
  2627  07CA                     l3162:	
  2628                           ;lcd1.c: 266: else{
  2629                           ;lcd1.c: 267: wf=0;
  2630  07CA  01E8               	clrf	(getlogicseq@wf)^080h
  2631  07CB  01E9               	clrf	(getlogicseq@wf+1)^080h
  2632  07CC  2FCD               	goto	l3164
  2633                           	line	268
  2634                           	
  2635  07CD                     l730:	
  2636                           	line	269
  2637                           	
  2638  07CD                     l3164:	
  2639                           ;lcd1.c: 268: }
  2640                           ;lcd1.c: 269: if(ccount>3)
  2641  07CD  086B               	movf	(getlogicseq@ccount+1)^080h,w
  2642  07CE  3A80               	xorlw	80h
  2643  07CF  00FF               	movwf	btemp+1
  2644  07D0  3080               	movlw	(high(04h))^80h
  2645  07D1  027F               	subwf	btemp+1,w
  2646  07D2  1D03               	skipz
  2647  07D3  2FD6               	goto	u4155
  2648  07D4  3004               	movlw	low(04h)
  2649  07D5  026A               	subwf	(getlogicseq@ccount)^080h,w
  2650  07D6                     u4155:
  2651                           
  2652  07D6  1C03               	skipc
  2653  07D7  2FD9               	goto	u4151
  2654  07D8  2FDA               	goto	u4150
  2655  07D9                     u4151:
  2656  07D9  2FDC               	goto	l3168
  2657  07DA                     u4150:
  2658  07DA  2C2E               	goto	l2992
  2659                           	line	270
  2660                           	
  2661  07DB                     l3166:	
  2662                           ;lcd1.c: 270: break;
  2663  07DB  2C2E               	goto	l2992
  2664                           	
  2665  07DC                     l731:	
  2666                           	line	272
  2667                           	
  2668  07DC                     l3168:	
  2669                           ;lcd1.c: 272: if(num==2)
  2670  07DC  3002               	movlw	02h
  2671  07DD  1683               	bsf	status, 5	;RP0=1, select bank1
  2672  07DE  1303               	bcf	status, 6	;RP1=0, select bank1
  2673  07DF  066C               	xorwf	(getlogicseq@num)^080h,w
  2674  07E0  046D               	iorwf	(getlogicseq@num+1)^080h,w
  2675  07E1  1D03               	skipz
  2676  07E2  2FE4               	goto	u4161
  2677  07E3  2FE5               	goto	u4160
  2678  07E4                     u4161:
  2679  07E4  2FF1               	goto	l3174
  2680  07E5                     u4160:
  2681                           	line	274
  2682                           	
  2683  07E5                     l3170:	
  2684                           ;lcd1.c: 273: {
  2685                           ;lcd1.c: 274: if(nf==0){
  2686  07E5  0867               	movf	((getlogicseq@nf+1)^080h),w
  2687  07E6  0466               	iorwf	((getlogicseq@nf)^080h),w
  2688  07E7  1D03               	skipz
  2689  07E8  2FEA               	goto	u4171
  2690  07E9  2FEB               	goto	u4170
  2691  07EA                     u4171:
  2692  07EA  2F43               	goto	l3140
  2693  07EB                     u4170:
  2694                           	line	275
  2695                           	
  2696  07EB                     l3172:	
  2697                           ;lcd1.c: 275: nf=1;
  2698  07EB  3001               	movlw	low(01h)
  2699  07EC  00E6               	movwf	(getlogicseq@nf)^080h
  2700  07ED  3000               	movlw	high(01h)
  2701  07EE  00E7               	movwf	((getlogicseq@nf)^080h)+1
  2702                           	line	276
  2703                           ;lcd1.c: 276: break;
  2704  07EF  2C2E               	goto	l2992
  2705                           	line	277
  2706                           	
  2707  07F0                     l734:	
  2708                           	line	278
  2709                           ;lcd1.c: 277: }
  2710                           ;lcd1.c: 278: }
  2711  07F0  2F43               	goto	l3140
  2712                           	line	279
  2713                           	
  2714  07F1                     l733:	
  2715                           	
  2716  07F1                     l3174:	
  2717                           ;lcd1.c: 279: else if(num==99){
  2718  07F1  3063               	movlw	063h
  2719  07F2  066C               	xorwf	(getlogicseq@num)^080h,w
  2720  07F3  046D               	iorwf	(getlogicseq@num+1)^080h,w
  2721  07F4  1D03               	skipz
  2722  07F5  2FF7               	goto	u4181
  2723  07F6  2FF8               	goto	u4180
  2724  07F7                     u4181:
  2725  07F7  2F43               	goto	l3140
  2726  07F8                     u4180:
  2727                           	line	280
  2728                           	
  2729  07F8                     l3176:	
  2730                           ;lcd1.c: 280: nf=0;
  2731  07F8  01E6               	clrf	(getlogicseq@nf)^080h
  2732  07F9  01E7               	clrf	(getlogicseq@nf+1)^080h
  2733  07FA  2F43               	goto	l3140
  2734                           	line	281
  2735                           	
  2736  07FB                     l736:	
  2737  07FB  2F43               	goto	l3140
  2738                           	line	282
  2739                           	
  2740  07FC                     l735:	
  2741  07FC  2F43               	goto	l3140
  2742                           	
  2743  07FD                     l737:	
  2744                           	line	250
  2745  07FD  2F43               	goto	l3140
  2746                           	
  2747  07FE                     l732:	
  2748                           	line	284
  2749                           ;lcd1.c: 281: }
  2750                           ;lcd1.c: 282: }
  2751                           ;lcd1.c: 284: goto START_SEQ;
  2752  07FE  2C2E               	goto	l2992
  2753                           	line	286
  2754                           	
  2755  07FF                     l738:	
  2756  07FF  0008               	return
  2757                           	opt stack 0
  2758                           GLOBAL	__end_of_getlogicseq
  2759  0800                     	__end_of_getlogicseq:
  2760 ;; =============== function _getlogicseq ends ============
  2761                           
  2762                           	signat	_getlogicseq,88
  2763                           	global	_scroll
  2764                           psect	text441,local,class=CODE,delta=2
  2765                           global __ptext441
  2766  0F32                     __ptext441:
  2767                           
  2768 ;; *************** function _scroll *****************
  2769 ;; Defined at:
  2770 ;;		line 420 in file "C:\PIC\PROJECTS\Training_Project\Code\LCD\lcd1.c"
  2771 ;; Parameters:    Size  Location     Type
  2772 ;;  str             1    wreg     PTR unsigned char 
  2773 ;;		 -> STR_1(38), 
  2774 ;;  loops           2   40[BANK0 ] int 
  2775 ;; Auto vars:     Size  Location     Type
  2776 ;;  str             1   55[BANK0 ] PTR unsigned char 
  2777 ;;		 -> STR_1(38), 
  2778 ;;  dest           32    0        unsigned char [32]
  2779 ;;  endat           2   51[BANK0 ] int 
  2780 ;;  startat         2   49[BANK0 ] int 
  2781 ;;  i               2   58[BANK0 ] int 
  2782 ;;  len             2   56[BANK0 ] int 
  2783 ;;  loopn           2   53[BANK0 ] int 
  2784 ;;  en              2   47[BANK0 ] int 
  2785 ;;  st              2   45[BANK0 ] int 
  2786 ;; Return value:  Size  Location     Type
  2787 ;;		None               void
  2788 ;; Registers used:
  2789 ;;		wreg, fsr0l, fsr0h, status,2, status,0, btemp+1, pclath, cstack
  2790 ;; Tracked objects:
  2791 ;;		On entry : 0/0
  2792 ;;		On exit  : 0/0
  2793 ;;		Unchanged: 0/0
  2794 ;; Data sizes:     COMMON   BANK0   BANK1   BANK3   BANK2
  2795 ;;      Params:         0       2       0       0       0
  2796 ;;      Locals:         0      15       0       0       0
  2797 ;;      Temps:          0       3       0       0       0
  2798 ;;      Totals:         0      20       0       0       0
  2799 ;;Total ram usage:       20 bytes
  2800 ;; Hardware stack levels used:    1
  2801 ;; Hardware stack levels required when called:    5
  2802 ;; This function calls:
  2803 ;;		_write
  2804 ;;		_delay
  2805 ;;		_cmd
  2806 ;; This function is called by:
  2807 ;;		_getlogicseq
  2808 ;; This function uses a non-reentrant model
  2809 ;;
  2810                           psect	text441
  2811                           	file	"C:\PIC\PROJECTS\Training_Project\Code\LCD\lcd1.c"
  2812                           	line	420
  2813                           	global	__size_of_scroll
  2814  00CE                     	__size_of_scroll	equ	__end_of_scroll-_scroll
  2815                           	
  2816  0F32                     _scroll:	
  2817                           	opt	stack 1
  2818                           ; Regs used in _scroll: [wreg-fsr0h+status,2+status,0+btemp+1+pclath+cstack]
  2819                           ;scroll@str stored from wreg
  2820                           	line	422
  2821  0F32  1283               	bcf	status, 5	;RP0=0, select bank0
  2822  0F33  1303               	bcf	status, 6	;RP1=0, select bank0
  2823  0F34  00D7               	movwf	(scroll@str)
  2824                           	
  2825  0F35                     l2938:	
  2826                           ;lcd1.c: 422: write(str,1,0); ;
  2827  0F35  0857               	movf	(scroll@str),w
  2828  0F36  00C2               	movwf	(?_write)
  2829  0F37  3080               	movlw	80h
  2830  0F38  00C3               	movwf	(?_write+1)
  2831  0F39  3001               	movlw	low(01h)
  2832  0F3A  00C4               	movwf	0+(?_write)+02h
  2833  0F3B  3000               	movlw	high(01h)
  2834  0F3C  00C5               	movwf	(0+(?_write)+02h)+1
  2835  0F3D  3000               	movlw	low(0)
  2836  0F3E  00C6               	movwf	0+(?_write)+04h
  2837  0F3F  3000               	movlw	high(0)
  2838  0F40  00C7               	movwf	(0+(?_write)+04h)+1
  2839  0F41  120A  158A  25F4   	fcall	_write
              120A  158A         
  2840                           	line	423
  2841                           	
  2842  0F46                     l2940:	
  2843                           ;lcd1.c: 423: int loopn=0;
  2844  0F46  1283               	bcf	status, 5	;RP0=0, select bank0
  2845  0F47  1303               	bcf	status, 6	;RP1=0, select bank0
  2846  0F48  01D5               	clrf	(scroll@loopn)
  2847  0F49  01D6               	clrf	(scroll@loopn+1)
  2848                           	line	425
  2849                           	
  2850  0F4A                     l2942:	
  2851                           ;lcd1.c: 424: int i;
  2852                           ;lcd1.c: 425: int len=0;;
  2853  0F4A  01D8               	clrf	(scroll@len)
  2854  0F4B  01D9               	clrf	(scroll@len+1)
  2855                           	line	426
  2856                           	
  2857  0F4C                     l2944:	
  2858                           ;lcd1.c: 426: int st=0;
  2859  0F4C  01CD               	clrf	(scroll@st)
  2860  0F4D  01CE               	clrf	(scroll@st+1)
  2861                           	line	428
  2862                           ;lcd1.c: 427: int en;
  2863                           ;lcd1.c: 428: while(str[i]!='\0')
  2864  0F4E  2F5C               	goto	l2948
  2865                           	
  2866  0F4F                     l786:	
  2867                           	line	429
  2868                           	
  2869  0F4F                     l2946:	
  2870                           ;lcd1.c: 429: { i++;
  2871  0F4F  3001               	movlw	low(01h)
  2872  0F50  07DA               	addwf	(scroll@i),f
  2873  0F51  1803               	skipnc
  2874  0F52  0ADB               	incf	(scroll@i+1),f
  2875  0F53  3000               	movlw	high(01h)
  2876  0F54  07DB               	addwf	(scroll@i+1),f
  2877                           	line	430
  2878                           ;lcd1.c: 430: len++;
  2879  0F55  3001               	movlw	low(01h)
  2880  0F56  07D8               	addwf	(scroll@len),f
  2881  0F57  1803               	skipnc
  2882  0F58  0AD9               	incf	(scroll@len+1),f
  2883  0F59  3000               	movlw	high(01h)
  2884  0F5A  07D9               	addwf	(scroll@len+1),f
  2885  0F5B  2F5C               	goto	l2948
  2886                           	line	431
  2887                           	
  2888  0F5C                     l785:	
  2889                           	line	428
  2890                           	
  2891  0F5C                     l2948:	
  2892  0F5C  085A               	movf	(scroll@i),w
  2893  0F5D  0757               	addwf	(scroll@str),w
  2894  0F5E  0084               	movwf	fsr0
  2895  0F5F  120A  118A  200D   	fcall	stringdir
              120A  158A         
  2896  0F64  3800               	iorlw	0
  2897  0F65  1D03               	skipz
  2898  0F66  2F68               	goto	u3811
  2899  0F67  2F69               	goto	u3810
  2900  0F68                     u3811:
  2901  0F68  2F4F               	goto	l2946
  2902  0F69                     u3810:
  2903  0F69  2F6A               	goto	l2950
  2904                           	
  2905  0F6A                     l787:	
  2906                           	line	432
  2907                           	
  2908  0F6A                     l2950:	
  2909                           ;lcd1.c: 431: }
  2910                           ;lcd1.c: 432: en=len-1;
  2911  0F6A  0858               	movf	(scroll@len),w
  2912  0F6B  3EFF               	addlw	low(-1)
  2913  0F6C  00CF               	movwf	(scroll@en)
  2914  0F6D  0859               	movf	(scroll@len+1),w
  2915  0F6E  1803               	skipnc
  2916  0F6F  3E01               	addlw	1
  2917  0F70  3EFF               	addlw	high(-1)
  2918  0F71  00D0               	movwf	1+(scroll@en)
  2919                           	line	434
  2920                           	
  2921  0F72                     l2952:	
  2922                           ;lcd1.c: 434: if(len>32)
  2923  0F72  0859               	movf	(scroll@len+1),w
  2924  0F73  3A80               	xorlw	80h
  2925  0F74  00FF               	movwf	btemp+1
  2926  0F75  3080               	movlw	(high(021h))^80h
  2927  0F76  027F               	subwf	btemp+1,w
  2928  0F77  1D03               	skipz
  2929  0F78  2F7B               	goto	u3825
  2930  0F79  3021               	movlw	low(021h)
  2931  0F7A  0258               	subwf	(scroll@len),w
  2932  0F7B                     u3825:
  2933                           
  2934  0F7B  1C03               	skipc
  2935  0F7C  2F7E               	goto	u3821
  2936  0F7D  2F7F               	goto	u3820
  2937  0F7E                     u3821:
  2938  0F7E  2FFF               	goto	l797
  2939  0F7F                     u3820:
  2940                           	line	438
  2941                           	
  2942  0F7F                     l2954:	
  2943                           ;lcd1.c: 435: {
  2944                           ;lcd1.c: 437: char dest [32] ;
  2945                           ;lcd1.c: 438: int startat=0;
  2946  0F7F  1283               	bcf	status, 5	;RP0=0, select bank0
  2947  0F80  1303               	bcf	status, 6	;RP1=0, select bank0
  2948  0F81  01D1               	clrf	(scroll@startat)
  2949  0F82  01D2               	clrf	(scroll@startat+1)
  2950                           	line	439
  2951                           	
  2952  0F83                     l2956:	
  2953                           ;lcd1.c: 439: int endat=31;
  2954  0F83  301F               	movlw	low(01Fh)
  2955  0F84  00D3               	movwf	(scroll@endat)
  2956  0F85  3000               	movlw	high(01Fh)
  2957  0F86  00D4               	movwf	((scroll@endat))+1
  2958  0F87  2F88               	goto	l2958
  2959                           	line	440
  2960                           ;lcd1.c: 440: START:
  2961                           	
  2962  0F88                     l789:	
  2963                           	line	441
  2964                           	
  2965  0F88                     l2958:	
  2966                           ;lcd1.c: 441: i=0;
  2967  0F88  1283               	bcf	status, 5	;RP0=0, select bank0
  2968  0F89  1303               	bcf	status, 6	;RP1=0, select bank0
  2969  0F8A  01DA               	clrf	(scroll@i)
  2970  0F8B  01DB               	clrf	(scroll@i+1)
  2971                           	line	442
  2972                           ;lcd1.c: 442: while(i++<32)
  2973  0F8C  2FA0               	goto	l2964
  2974                           	
  2975  0F8D                     l791:	
  2976                           	line	445
  2977                           	
  2978  0F8D                     l2960:	
  2979                           ;lcd1.c: 443: {
  2980                           ;lcd1.c: 445: delay(3000);
  2981  0F8D  30B8               	movlw	low(0BB8h)
  2982  0F8E  00F0               	movwf	(?_delay)
  2983  0F8F  300B               	movlw	high(0BB8h)
  2984  0F90  00F1               	movwf	((?_delay))+1
  2985  0F91  120A  158A  2475   	fcall	_delay
              120A  158A         
  2986                           	line	446
  2987                           	
  2988  0F96                     l2962:	
  2989                           ;lcd1.c: 446: cmd(0x1E);
  2990  0F96  301E               	movlw	low(01Eh)
  2991  0F97  00F8               	movwf	(?_cmd)
  2992  0F98  3000               	movlw	high(01Eh)
  2993  0F99  00F9               	movwf	((?_cmd))+1
  2994  0F9A  120A  158A  24BE   	fcall	_cmd
              120A  158A         
  2995  0F9F  2FA0               	goto	l2964
  2996                           	line	449
  2997                           	
  2998  0FA0                     l790:	
  2999                           	line	442
  3000                           	
  3001  0FA0                     l2964:	
  3002  0FA0  3001               	movlw	low(01h)
  3003  0FA1  1283               	bcf	status, 5	;RP0=0, select bank0
  3004  0FA2  1303               	bcf	status, 6	;RP1=0, select bank0
  3005  0FA3  07DA               	addwf	(scroll@i),f
  3006  0FA4  1803               	skipnc
  3007  0FA5  0ADB               	incf	(scroll@i+1),f
  3008  0FA6  3000               	movlw	high(01h)
  3009  0FA7  07DB               	addwf	(scroll@i+1),f
  3010  0FA8  085B               	movf	((scroll@i+1)),w
  3011  0FA9  3A80               	xorlw	80h
  3012  0FAA  00FF               	movwf	btemp+1
  3013  0FAB  3080               	movlw	(high(021h))^80h
  3014  0FAC  027F               	subwf	btemp+1,w
  3015  0FAD  1D03               	skipz
  3016  0FAE  2FB1               	goto	u3835
  3017  0FAF  3021               	movlw	low(021h)
  3018  0FB0  025A               	subwf	((scroll@i)),w
  3019  0FB1                     u3835:
  3020                           
  3021  0FB1  1C03               	skipc
  3022  0FB2  2FB4               	goto	u3831
  3023  0FB3  2FB5               	goto	u3830
  3024  0FB4                     u3831:
  3025  0FB4  2F8D               	goto	l2960
  3026  0FB5                     u3830:
  3027  0FB5  2FB6               	goto	l2966
  3028                           	
  3029  0FB6                     l792:	
  3030                           	line	451
  3031                           	
  3032  0FB6                     l2966:	
  3033                           ;lcd1.c: 449: }
  3034                           ;lcd1.c: 451: i=0;
  3035  0FB6  1283               	bcf	status, 5	;RP0=0, select bank0
  3036  0FB7  1303               	bcf	status, 6	;RP1=0, select bank0
  3037  0FB8  01DA               	clrf	(scroll@i)
  3038  0FB9  01DB               	clrf	(scroll@i+1)
  3039                           	line	452
  3040                           ;lcd1.c: 452: while(i++<32)
  3041  0FBA  2FCE               	goto	l2972
  3042                           	
  3043  0FBB                     l794:	
  3044                           	line	455
  3045                           	
  3046  0FBB                     l2968:	
  3047                           ;lcd1.c: 453: {
  3048                           ;lcd1.c: 455: delay(3000);
  3049  0FBB  30B8               	movlw	low(0BB8h)
  3050  0FBC  00F0               	movwf	(?_delay)
  3051  0FBD  300B               	movlw	high(0BB8h)
  3052  0FBE  00F1               	movwf	((?_delay))+1
  3053  0FBF  120A  158A  2475   	fcall	_delay
              120A  158A         
  3054                           	line	456
  3055                           	
  3056  0FC4                     l2970:	
  3057                           ;lcd1.c: 456: cmd(0x18);
  3058  0FC4  3018               	movlw	low(018h)
  3059  0FC5  00F8               	movwf	(?_cmd)
  3060  0FC6  3000               	movlw	high(018h)
  3061  0FC7  00F9               	movwf	((?_cmd))+1
  3062  0FC8  120A  158A  24BE   	fcall	_cmd
              120A  158A         
  3063  0FCD  2FCE               	goto	l2972
  3064                           	line	459
  3065                           	
  3066  0FCE                     l793:	
  3067                           	line	452
  3068                           	
  3069  0FCE                     l2972:	
  3070  0FCE  3001               	movlw	low(01h)
  3071  0FCF  1283               	bcf	status, 5	;RP0=0, select bank0
  3072  0FD0  1303               	bcf	status, 6	;RP1=0, select bank0
  3073  0FD1  07DA               	addwf	(scroll@i),f
  3074  0FD2  1803               	skipnc
  3075  0FD3  0ADB               	incf	(scroll@i+1),f
  3076  0FD4  3000               	movlw	high(01h)
  3077  0FD5  07DB               	addwf	(scroll@i+1),f
  3078  0FD6  085B               	movf	((scroll@i+1)),w
  3079  0FD7  3A80               	xorlw	80h
  3080  0FD8  00FF               	movwf	btemp+1
  3081  0FD9  3080               	movlw	(high(021h))^80h
  3082  0FDA  027F               	subwf	btemp+1,w
  3083  0FDB  1D03               	skipz
  3084  0FDC  2FDF               	goto	u3845
  3085  0FDD  3021               	movlw	low(021h)
  3086  0FDE  025A               	subwf	((scroll@i)),w
  3087  0FDF                     u3845:
  3088                           
  3089  0FDF  1C03               	skipc
  3090  0FE0  2FE2               	goto	u3841
  3091  0FE1  2FE3               	goto	u3840
  3092  0FE2                     u3841:
  3093  0FE2  2FBB               	goto	l2968
  3094  0FE3                     u3840:
  3095  0FE3  2FE4               	goto	l2974
  3096                           	
  3097  0FE4                     l795:	
  3098                           	line	460
  3099                           	
  3100  0FE4                     l2974:	
  3101                           ;lcd1.c: 459: }
  3102                           ;lcd1.c: 460: if(loopn++<loops)
  3103  0FE4  1283               	bcf	status, 5	;RP0=0, select bank0
  3104  0FE5  1303               	bcf	status, 6	;RP1=0, select bank0
  3105  0FE6  0856               	movf	(scroll@loopn+1),w
  3106  0FE7  00CB               	movwf	(??_scroll+0)+0+1
  3107  0FE8  0855               	movf	(scroll@loopn),w
  3108  0FE9  00CA               	movwf	(??_scroll+0)+0
  3109  0FEA  3001               	movlw	(01h)
  3110  0FEB  07D5               	addwf	(scroll@loopn),f
  3111  0FEC  1803               	skipnc
  3112  0FED  0AD6               	incf	(scroll@loopn+1),f
  3113  0FEE  084B               	movf	1+(??_scroll+0)+0,w
  3114  0FEF  3A80               	xorlw	80h
  3115  0FF0  00CC               	movwf	(??_scroll+2)+0
  3116  0FF1  0849               	movf	(scroll@loops+1),w
  3117  0FF2  3A80               	xorlw	80h
  3118  0FF3  024C               	subwf	(??_scroll+2)+0,w
  3119  0FF4  1D03               	skipz
  3120  0FF5  2FF8               	goto	u3855
  3121  0FF6  0848               	movf	(scroll@loops),w
  3122  0FF7  024A               	subwf	0+(??_scroll+0)+0,w
  3123  0FF8                     u3855:
  3124                           
  3125  0FF8  1803               	skipnc
  3126  0FF9  2FFB               	goto	u3851
  3127  0FFA  2FFC               	goto	u3850
  3128  0FFB                     u3851:
  3129  0FFB  2FFF               	goto	l797
  3130  0FFC                     u3850:
  3131  0FFC  2F88               	goto	l2958
  3132                           	line	461
  3133                           	
  3134  0FFD                     l2976:	
  3135                           ;lcd1.c: 461: goto START;
  3136  0FFD  2F88               	goto	l2958
  3137                           	
  3138  0FFE                     l796:	
  3139  0FFE  2FFF               	goto	l797
  3140                           	line	462
  3141                           	
  3142  0FFF                     l788:	
  3143                           	line	467
  3144                           	
  3145  0FFF                     l797:	
  3146  0FFF  0008               	return
  3147                           	opt stack 0
  3148                           GLOBAL	__end_of_scroll
  3149  1000                     	__end_of_scroll:
  3150 ;; =============== function _scroll ends ============
  3151                           
  3152                           	signat	_scroll,8312
  3153                           	global	_write
  3154                           psect	text442,local,class=CODE,delta=2
  3155                           global __ptext442
  3156  0DF4                     __ptext442:
  3157                           
  3158 ;; *************** function _write *****************
  3159 ;; Defined at:
  3160 ;;		line 399 in file "C:\PIC\PROJECTS\Training_Project\Code\LCD\lcd1.c"
  3161 ;; Parameters:    Size  Location     Type
  3162 ;;  str             2   34[BANK0 ] PTR unsigned char 
  3163 ;;		 -> STR_13(5), STR_10(5), STR_7(5), STR_4(5), 
  3164 ;;		 -> getlogicseq@str(32), STR_1(38), getlogicseq@logic_d4(5), getlogicseq@logic_d3(5), 
  3165 ;;		 -> getlogicseq@logic_d2(5), getlogicseq@logic_d1(5), 
  3166 ;;  line            2   36[BANK0 ] int 
  3167 ;;  erase           2   38[BANK0 ] int 
  3168 ;; Auto vars:     Size  Location     Type
  3169 ;;  i               2   12[COMMON] int 
  3170 ;; Return value:  Size  Location     Type
  3171 ;;		None               void
  3172 ;; Registers used:
  3173 ;;		wreg, fsr0l, fsr0h, status,2, status,0, btemp+1, pclath, cstack
  3174 ;; Tracked objects:
  3175 ;;		On entry : 0/0
  3176 ;;		On exit  : 0/0
  3177 ;;		Unchanged: 0/0
  3178 ;; Data sizes:     COMMON   BANK0   BANK1   BANK3   BANK2
  3179 ;;      Params:         0       6       0       0       0
  3180 ;;      Locals:         2       0       0       0       0
  3181 ;;      Temps:          2       0       0       0       0
  3182 ;;      Totals:         4       6       0       0       0
  3183 ;;Total ram usage:       10 bytes
  3184 ;; Hardware stack levels used:    1
  3185 ;; Hardware stack levels required when called:    4
  3186 ;; This function calls:
  3187 ;;		_clearlcd
  3188 ;;		_cmd
  3189 ;;		_dat
  3190 ;; This function is called by:
  3191 ;;		_getlogicseq
  3192 ;;		_scroll
  3193 ;; This function uses a non-reentrant model
  3194 ;;
  3195                           psect	text442
  3196                           	file	"C:\PIC\PROJECTS\Training_Project\Code\LCD\lcd1.c"
  3197                           	line	399
  3198                           	global	__size_of_write
  3199  0064                     	__size_of_write	equ	__end_of_write-_write
  3200                           	
  3201  0DF4                     _write:	
  3202                           	opt	stack 2
  3203                           ; Regs used in _write: [wreg-fsr0h+status,2+status,0+btemp+1+pclath+cstack]
  3204                           	line	400
  3205                           	
  3206  0DF4                     l2920:	
  3207                           ;lcd1.c: 400: if(erase==1)
  3208  0DF4  3001               	movlw	01h
  3209  0DF5  1283               	bcf	status, 5	;RP0=0, select bank0
  3210  0DF6  1303               	bcf	status, 6	;RP1=0, select bank0
  3211  0DF7  0646               	xorwf	(write@erase),w
  3212  0DF8  0447               	iorwf	(write@erase+1),w
  3213  0DF9  1D03               	skipz
  3214  0DFA  2DFC               	goto	u3781
  3215  0DFB  2DFD               	goto	u3780
  3216  0DFC                     u3781:
  3217  0DFC  2E03               	goto	l2924
  3218  0DFD                     u3780:
  3219                           	line	401
  3220                           	
  3221  0DFD                     l2922:	
  3222                           ;lcd1.c: 401: clearlcd();
  3223  0DFD  120A  158A  245C   	fcall	_clearlcd
              120A  158A         
  3224  0E02  2E03               	goto	l2924
  3225                           	
  3226  0E03                     l776:	
  3227                           	line	403
  3228                           	
  3229  0E03                     l2924:	
  3230                           ;lcd1.c: 403: if(line==2)
  3231  0E03  3002               	movlw	02h
  3232  0E04  1283               	bcf	status, 5	;RP0=0, select bank0
  3233  0E05  1303               	bcf	status, 6	;RP1=0, select bank0
  3234  0E06  0644               	xorwf	(write@line),w
  3235  0E07  0445               	iorwf	(write@line+1),w
  3236  0E08  1D03               	skipz
  3237  0E09  2E0B               	goto	u3791
  3238  0E0A  2E0C               	goto	u3790
  3239  0E0B                     u3791:
  3240  0E0B  2E16               	goto	l2928
  3241  0E0C                     u3790:
  3242                           	line	404
  3243                           	
  3244  0E0C                     l2926:	
  3245                           ;lcd1.c: 404: cmd(0xC0);
  3246  0E0C  30C0               	movlw	low(0C0h)
  3247  0E0D  00F8               	movwf	(?_cmd)
  3248  0E0E  3000               	movlw	high(0C0h)
  3249  0E0F  00F9               	movwf	((?_cmd))+1
  3250  0E10  120A  158A  24BE   	fcall	_cmd
              120A  158A         
  3251  0E15  2E20               	goto	l2930
  3252                           	line	405
  3253                           	
  3254  0E16                     l777:	
  3255                           	line	406
  3256                           	
  3257  0E16                     l2928:	
  3258                           ;lcd1.c: 405: else
  3259                           ;lcd1.c: 406: cmd(0x2);
  3260  0E16  3002               	movlw	low(02h)
  3261  0E17  00F8               	movwf	(?_cmd)
  3262  0E18  3000               	movlw	high(02h)
  3263  0E19  00F9               	movwf	((?_cmd))+1
  3264  0E1A  120A  158A  24BE   	fcall	_cmd
              120A  158A         
  3265  0E1F  2E20               	goto	l2930
  3266                           	
  3267  0E20                     l778:	
  3268                           	line	408
  3269                           	
  3270  0E20                     l2930:	
  3271                           ;lcd1.c: 408: int i=0;
  3272  0E20  01FC               	clrf	(write@i)
  3273  0E21  01FD               	clrf	(write@i+1)
  3274                           	line	409
  3275                           ;lcd1.c: 409: while(str[i]!='\0')
  3276  0E22  2E43               	goto	l2936
  3277                           	
  3278  0E23                     l780:	
  3279                           	line	411
  3280                           	
  3281  0E23                     l2932:	
  3282                           ;lcd1.c: 410: {
  3283                           ;lcd1.c: 411: dat(str[i]);
  3284  0E23  087C               	movf	(write@i),w
  3285  0E24  1283               	bcf	status, 5	;RP0=0, select bank0
  3286  0E25  1303               	bcf	status, 6	;RP1=0, select bank0
  3287  0E26  0742               	addwf	(write@str),w
  3288  0E27  0084               	movwf	fsr0
  3289  0E28  0843               	movf	(write@str+1),w
  3290  0E29  1803               	skipnc
  3291  0E2A  0A43               	incf	(write@str+1),w
  3292  0E2B  00FF               	movwf	btemp+1
  3293  0E2C  120A  118A  2003   	fcall	stringtab
              120A  158A         
  3294  0E31  00FA               	movwf	(??_write+0)+0
  3295  0E32  01FB               	clrf	(??_write+0)+0+1
  3296  0E33  087A               	movf	0+(??_write+0)+0,w
  3297  0E34  00F8               	movwf	(?_dat)
  3298  0E35  087B               	movf	1+(??_write+0)+0,w
  3299  0E36  00F9               	movwf	(?_dat+1)
  3300  0E37  120A  158A  24E3   	fcall	_dat
              120A  158A         
  3301                           	line	412
  3302                           	
  3303  0E3C                     l2934:	
  3304                           ;lcd1.c: 412: i++;
  3305  0E3C  3001               	movlw	low(01h)
  3306  0E3D  07FC               	addwf	(write@i),f
  3307  0E3E  1803               	skipnc
  3308  0E3F  0AFD               	incf	(write@i+1),f
  3309  0E40  3000               	movlw	high(01h)
  3310  0E41  07FD               	addwf	(write@i+1),f
  3311  0E42  2E43               	goto	l2936
  3312                           	line	413
  3313                           	
  3314  0E43                     l779:	
  3315                           	line	409
  3316                           	
  3317  0E43                     l2936:	
  3318  0E43  087C               	movf	(write@i),w
  3319  0E44  1283               	bcf	status, 5	;RP0=0, select bank0
  3320  0E45  1303               	bcf	status, 6	;RP1=0, select bank0
  3321  0E46  0742               	addwf	(write@str),w
  3322  0E47  0084               	movwf	fsr0
  3323  0E48  0843               	movf	(write@str+1),w
  3324  0E49  1803               	skipnc
  3325  0E4A  0A43               	incf	(write@str+1),w
  3326  0E4B  00FF               	movwf	btemp+1
  3327  0E4C  120A  118A  2003   	fcall	stringtab
              120A  158A         
  3328  0E51  3800               	iorlw	0
  3329  0E52  1D03               	skipz
  3330  0E53  2E55               	goto	u3801
  3331  0E54  2E56               	goto	u3800
  3332  0E55                     u3801:
  3333  0E55  2E23               	goto	l2932
  3334  0E56                     u3800:
  3335  0E56  2E57               	goto	l782
  3336                           	
  3337  0E57                     l781:	
  3338                           	line	416
  3339                           	
  3340  0E57                     l782:	
  3341  0E57  0008               	return
  3342                           	opt stack 0
  3343                           GLOBAL	__end_of_write
  3344  0E58                     	__end_of_write:
  3345 ;; =============== function _write ends ============
  3346                           
  3347                           	signat	_write,12408
  3348                           	global	_clearlcd
  3349                           psect	text443,local,class=CODE,delta=2
  3350                           global __ptext443
  3351  0C5C                     __ptext443:
  3352                           
  3353 ;; *************** function _clearlcd *****************
  3354 ;; Defined at:
  3355 ;;		line 342 in file "C:\PIC\PROJECTS\Training_Project\Code\LCD\lcd1.c"
  3356 ;; Parameters:    Size  Location     Type
  3357 ;;		None
  3358 ;; Auto vars:     Size  Location     Type
  3359 ;;		None
  3360 ;; Return value:  Size  Location     Type
  3361 ;;		None               void
  3362 ;; Registers used:
  3363 ;;		wreg, fsr0l, fsr0h, status,2, status,0, btemp+1, pclath, cstack
  3364 ;; Tracked objects:
  3365 ;;		On entry : 0/0
  3366 ;;		On exit  : 0/0
  3367 ;;		Unchanged: 0/0
  3368 ;; Data sizes:     COMMON   BANK0   BANK1   BANK3   BANK2
  3369 ;;      Params:         0       0       0       0       0
  3370 ;;      Locals:         0       0       0       0       0
  3371 ;;      Temps:          0       0       0       0       0
  3372 ;;      Totals:         0       0       0       0       0
  3373 ;;Total ram usage:        0 bytes
  3374 ;; Hardware stack levels used:    1
  3375 ;; Hardware stack levels required when called:    3
  3376 ;; This function calls:
  3377 ;;		_cmd
  3378 ;; This function is called by:
  3379 ;;		_write
  3380 ;; This function uses a non-reentrant model
  3381 ;;
  3382                           psect	text443
  3383                           	file	"C:\PIC\PROJECTS\Training_Project\Code\LCD\lcd1.c"
  3384                           	line	342
  3385                           	global	__size_of_clearlcd
  3386  000A                     	__size_of_clearlcd	equ	__end_of_clearlcd-_clearlcd
  3387                           	
  3388  0C5C                     _clearlcd:	
  3389                           	opt	stack 2
  3390                           ; Regs used in _clearlcd: [wreg-fsr0h+status,2+status,0+btemp+1+pclath+cstack]
  3391                           	line	343
  3392                           	
  3393  0C5C                     l2918:	
  3394                           ;lcd1.c: 343: cmd(0x01);
  3395  0C5C  3001               	movlw	low(01h)
  3396  0C5D  00F8               	movwf	(?_cmd)
  3397  0C5E  3000               	movlw	high(01h)
  3398  0C5F  00F9               	movwf	((?_cmd))+1
  3399  0C60  120A  158A  24BE   	fcall	_cmd
              120A  158A         
  3400                           	line	344
  3401                           	
  3402  0C65                     l760:	
  3403  0C65  0008               	return
  3404                           	opt stack 0
  3405                           GLOBAL	__end_of_clearlcd
  3406  0C66                     	__end_of_clearlcd:
  3407 ;; =============== function _clearlcd ends ============
  3408                           
  3409                           	signat	_clearlcd,88
  3410                           	global	_scan
  3411                           psect	text444,local,class=CODE,delta=2
  3412                           global __ptext444
  3413  00A3                     __ptext444:
  3414                           
  3415 ;; *************** function _scan *****************
  3416 ;; Defined at:
  3417 ;;		line 481 in file "C:\PIC\PROJECTS\Training_Project\Code\LCD\lcd1.c"
  3418 ;; Parameters:    Size  Location     Type
  3419 ;;		None
  3420 ;; Auto vars:     Size  Location     Type
  3421 ;;		None
  3422 ;; Return value:  Size  Location     Type
  3423 ;;                  2    4[COMMON] int 
  3424 ;; Registers used:
  3425 ;;		wreg, status,2, status,0, pclath, cstack
  3426 ;; Tracked objects:
  3427 ;;		On entry : 0/0
  3428 ;;		On exit  : 0/0
  3429 ;;		Unchanged: 0/0
  3430 ;; Data sizes:     COMMON   BANK0   BANK1   BANK3   BANK2
  3431 ;;      Params:         2       0       0       0       0
  3432 ;;      Locals:         0       0       0       0       0
  3433 ;;      Temps:          0       0       0       0       0
  3434 ;;      Totals:         2       0       0       0       0
  3435 ;;Total ram usage:        2 bytes
  3436 ;; Hardware stack levels used:    1
  3437 ;; Hardware stack levels required when called:    2
  3438 ;; This function calls:
  3439 ;;		_actrow
  3440 ;; This function is called by:
  3441 ;;		_getlogicseq
  3442 ;; This function uses a non-reentrant model
  3443 ;;
  3444                           psect	text444
  3445                           	file	"C:\PIC\PROJECTS\Training_Project\Code\LCD\lcd1.c"
  3446                           	line	481
  3447                           	global	__size_of_scan
  3448  00E8                     	__size_of_scan	equ	__end_of_scan-_scan
  3449                           	
  3450  00A3                     _scan:	
  3451                           	opt	stack 4
  3452                           ; Regs used in _scan: [wreg+status,2+status,0+pclath+cstack]
  3453                           	line	482
  3454                           	
  3455  00A3                     l2810:	
  3456                           ;lcd1.c: 482: actrow(1) ;
  3457  00A3  3001               	movlw	low(01h)
  3458  00A4  00F2               	movwf	(?_actrow)
  3459  00A5  3000               	movlw	high(01h)
  3460  00A6  00F3               	movwf	((?_actrow))+1
  3461  00A7  120A  158A  25B6   	fcall	_actrow
              120A  118A         
  3462                           	line	483
  3463                           	
  3464  00AC                     l2812:	
  3465                           ;lcd1.c: 483: if( RC2==1)
  3466  00AC  1283               	bcf	status, 5	;RP0=0, select bank0
  3467  00AD  1303               	bcf	status, 6	;RP1=0, select bank0
  3468  00AE  1D07               	btfss	(58/8),(58)&7
  3469  00AF  28B1               	goto	u3621
  3470  00B0  28B2               	goto	u3620
  3471  00B1                     u3621:
  3472  00B1  28B7               	goto	l803
  3473  00B2                     u3620:
  3474                           	line	484
  3475                           	
  3476  00B2                     l2814:	
  3477                           ;lcd1.c: 484: return 0;
  3478  00B2  01F4               	clrf	(?_scan)
  3479  00B3  01F5               	clrf	(?_scan+1)
  3480  00B4  298A               	goto	l804
  3481                           	
  3482  00B5                     l2816:	
  3483  00B5  298A               	goto	l804
  3484                           	
  3485  00B6                     l2818:	
  3486  00B6  28DA               	goto	l2836
  3487                           	line	485
  3488                           	
  3489  00B7                     l803:	
  3490                           ;lcd1.c: 485: else if(RC3==1)
  3491  00B7  1D87               	btfss	(59/8),(59)&7
  3492  00B8  28BA               	goto	u3631
  3493  00B9  28BB               	goto	u3630
  3494  00BA                     u3631:
  3495  00BA  28C2               	goto	l806
  3496  00BB                     u3630:
  3497                           	line	486
  3498                           	
  3499  00BB                     l2820:	
  3500                           ;lcd1.c: 486: return 1;
  3501  00BB  3001               	movlw	low(01h)
  3502  00BC  00F4               	movwf	(?_scan)
  3503  00BD  3000               	movlw	high(01h)
  3504  00BE  00F5               	movwf	((?_scan))+1
  3505  00BF  298A               	goto	l804
  3506                           	
  3507  00C0                     l2822:	
  3508  00C0  298A               	goto	l804
  3509                           	
  3510  00C1                     l2824:	
  3511  00C1  28DA               	goto	l2836
  3512                           	line	487
  3513                           	
  3514  00C2                     l806:	
  3515                           ;lcd1.c: 487: else if(RB6==1)
  3516  00C2  1F06               	btfss	(54/8),(54)&7
  3517  00C3  28C5               	goto	u3641
  3518  00C4  28C6               	goto	u3640
  3519  00C5                     u3641:
  3520  00C5  28CD               	goto	l808
  3521  00C6                     u3640:
  3522                           	line	488
  3523                           	
  3524  00C6                     l2826:	
  3525                           ;lcd1.c: 488: return 3;
  3526  00C6  3003               	movlw	low(03h)
  3527  00C7  00F4               	movwf	(?_scan)
  3528  00C8  3000               	movlw	high(03h)
  3529  00C9  00F5               	movwf	((?_scan))+1
  3530  00CA  298A               	goto	l804
  3531                           	
  3532  00CB                     l2828:	
  3533  00CB  298A               	goto	l804
  3534                           	
  3535  00CC                     l2830:	
  3536  00CC  28DA               	goto	l2836
  3537                           	line	489
  3538                           	
  3539  00CD                     l808:	
  3540                           ;lcd1.c: 489: else if(RB7==1)
  3541  00CD  1F86               	btfss	(55/8),(55)&7
  3542  00CE  28D0               	goto	u3651
  3543  00CF  28D1               	goto	u3650
  3544  00D0                     u3651:
  3545  00D0  28DA               	goto	l2836
  3546  00D1                     u3650:
  3547                           	line	490
  3548                           	
  3549  00D1                     l2832:	
  3550                           ;lcd1.c: 490: return 4;
  3551  00D1  3004               	movlw	low(04h)
  3552  00D2  00F4               	movwf	(?_scan)
  3553  00D3  3000               	movlw	high(04h)
  3554  00D4  00F5               	movwf	((?_scan))+1
  3555  00D5  298A               	goto	l804
  3556                           	
  3557  00D6                     l2834:	
  3558  00D6  298A               	goto	l804
  3559                           	
  3560  00D7                     l810:	
  3561  00D7  28DA               	goto	l2836
  3562                           	line	492
  3563                           	
  3564  00D8                     l809:	
  3565  00D8  28DA               	goto	l2836
  3566                           	
  3567  00D9                     l807:	
  3568  00D9  28DA               	goto	l2836
  3569                           	
  3570  00DA                     l805:	
  3571                           	
  3572  00DA                     l2836:	
  3573                           ;lcd1.c: 492: actrow(2) ;
  3574  00DA  3002               	movlw	low(02h)
  3575  00DB  00F2               	movwf	(?_actrow)
  3576  00DC  3000               	movlw	high(02h)
  3577  00DD  00F3               	movwf	((?_actrow))+1
  3578  00DE  120A  158A  25B6   	fcall	_actrow
              120A  118A         
  3579                           	line	494
  3580                           	
  3581  00E3                     l2838:	
  3582                           ;lcd1.c: 494: if( RC2==1)
  3583  00E3  1283               	bcf	status, 5	;RP0=0, select bank0
  3584  00E4  1303               	bcf	status, 6	;RP1=0, select bank0
  3585  00E5  1D07               	btfss	(58/8),(58)&7
  3586  00E6  28E8               	goto	u3661
  3587  00E7  28E9               	goto	u3660
  3588  00E8                     u3661:
  3589  00E8  28F0               	goto	l811
  3590  00E9                     u3660:
  3591                           	line	495
  3592                           	
  3593  00E9                     l2840:	
  3594                           ;lcd1.c: 495: return 5;
  3595  00E9  3005               	movlw	low(05h)
  3596  00EA  00F4               	movwf	(?_scan)
  3597  00EB  3000               	movlw	high(05h)
  3598  00EC  00F5               	movwf	((?_scan))+1
  3599  00ED  298A               	goto	l804
  3600                           	
  3601  00EE                     l2842:	
  3602  00EE  298A               	goto	l804
  3603                           	
  3604  00EF                     l2844:	
  3605  00EF  2913               	goto	l2862
  3606                           	line	496
  3607                           	
  3608  00F0                     l811:	
  3609                           ;lcd1.c: 496: else if(RC3==1)
  3610  00F0  1D87               	btfss	(59/8),(59)&7
  3611  00F1  28F3               	goto	u3671
  3612  00F2  28F4               	goto	u3670
  3613  00F3                     u3671:
  3614  00F3  28FB               	goto	l813
  3615  00F4                     u3670:
  3616                           	line	497
  3617                           	
  3618  00F4                     l2846:	
  3619                           ;lcd1.c: 497: return 6;
  3620  00F4  3006               	movlw	low(06h)
  3621  00F5  00F4               	movwf	(?_scan)
  3622  00F6  3000               	movlw	high(06h)
  3623  00F7  00F5               	movwf	((?_scan))+1
  3624  00F8  298A               	goto	l804
  3625                           	
  3626  00F9                     l2848:	
  3627  00F9  298A               	goto	l804
  3628                           	
  3629  00FA                     l2850:	
  3630  00FA  2913               	goto	l2862
  3631                           	line	498
  3632                           	
  3633  00FB                     l813:	
  3634                           ;lcd1.c: 498: else if(RB6==1)
  3635  00FB  1F06               	btfss	(54/8),(54)&7
  3636  00FC  28FE               	goto	u3681
  3637  00FD  28FF               	goto	u3680
  3638  00FE                     u3681:
  3639  00FE  2906               	goto	l815
  3640  00FF                     u3680:
  3641                           	line	499
  3642                           	
  3643  00FF                     l2852:	
  3644                           ;lcd1.c: 499: return 7;
  3645  00FF  3007               	movlw	low(07h)
  3646  0100  00F4               	movwf	(?_scan)
  3647  0101  3000               	movlw	high(07h)
  3648  0102  00F5               	movwf	((?_scan))+1
  3649  0103  298A               	goto	l804
  3650                           	
  3651  0104                     l2854:	
  3652  0104  298A               	goto	l804
  3653                           	
  3654  0105                     l2856:	
  3655  0105  2913               	goto	l2862
  3656                           	line	500
  3657                           	
  3658  0106                     l815:	
  3659                           ;lcd1.c: 500: else if(RB7==1)
  3660  0106  1F86               	btfss	(55/8),(55)&7
  3661  0107  2909               	goto	u3691
  3662  0108  290A               	goto	u3690
  3663  0109                     u3691:
  3664  0109  2913               	goto	l2862
  3665  010A                     u3690:
  3666                           	line	501
  3667                           	
  3668  010A                     l2858:	
  3669                           ;lcd1.c: 501: return 8;
  3670  010A  3008               	movlw	low(08h)
  3671  010B  00F4               	movwf	(?_scan)
  3672  010C  3000               	movlw	high(08h)
  3673  010D  00F5               	movwf	((?_scan))+1
  3674  010E  298A               	goto	l804
  3675                           	
  3676  010F                     l2860:	
  3677  010F  298A               	goto	l804
  3678                           	
  3679  0110                     l817:	
  3680  0110  2913               	goto	l2862
  3681                           	line	503
  3682                           	
  3683  0111                     l816:	
  3684  0111  2913               	goto	l2862
  3685                           	
  3686  0112                     l814:	
  3687  0112  2913               	goto	l2862
  3688                           	
  3689  0113                     l812:	
  3690                           	
  3691  0113                     l2862:	
  3692                           ;lcd1.c: 503: actrow(3) ;
  3693  0113  3003               	movlw	low(03h)
  3694  0114  00F2               	movwf	(?_actrow)
  3695  0115  3000               	movlw	high(03h)
  3696  0116  00F3               	movwf	((?_actrow))+1
  3697  0117  120A  158A  25B6   	fcall	_actrow
              120A  118A         
  3698                           	line	505
  3699                           	
  3700  011C                     l2864:	
  3701                           ;lcd1.c: 505: if( RC2==1)
  3702  011C  1283               	bcf	status, 5	;RP0=0, select bank0
  3703  011D  1303               	bcf	status, 6	;RP1=0, select bank0
  3704  011E  1D07               	btfss	(58/8),(58)&7
  3705  011F  2921               	goto	u3701
  3706  0120  2922               	goto	u3700
  3707  0121                     u3701:
  3708  0121  2929               	goto	l818
  3709  0122                     u3700:
  3710                           	line	506
  3711                           	
  3712  0122                     l2866:	
  3713                           ;lcd1.c: 506: return 9;
  3714  0122  3009               	movlw	low(09h)
  3715  0123  00F4               	movwf	(?_scan)
  3716  0124  3000               	movlw	high(09h)
  3717  0125  00F5               	movwf	((?_scan))+1
  3718  0126  298A               	goto	l804
  3719                           	
  3720  0127                     l2868:	
  3721  0127  298A               	goto	l804
  3722                           	
  3723  0128                     l2870:	
  3724  0128  294C               	goto	l2888
  3725                           	line	507
  3726                           	
  3727  0129                     l818:	
  3728                           ;lcd1.c: 507: else if(RC3==1)
  3729  0129  1D87               	btfss	(59/8),(59)&7
  3730  012A  292C               	goto	u3711
  3731  012B  292D               	goto	u3710
  3732  012C                     u3711:
  3733  012C  2934               	goto	l820
  3734  012D                     u3710:
  3735                           	line	508
  3736                           	
  3737  012D                     l2872:	
  3738                           ;lcd1.c: 508: return 10;
  3739  012D  300A               	movlw	low(0Ah)
  3740  012E  00F4               	movwf	(?_scan)
  3741  012F  3000               	movlw	high(0Ah)
  3742  0130  00F5               	movwf	((?_scan))+1
  3743  0131  298A               	goto	l804
  3744                           	
  3745  0132                     l2874:	
  3746  0132  298A               	goto	l804
  3747                           	
  3748  0133                     l2876:	
  3749  0133  294C               	goto	l2888
  3750                           	line	509
  3751                           	
  3752  0134                     l820:	
  3753                           ;lcd1.c: 509: else if(RB6==1)
  3754  0134  1F06               	btfss	(54/8),(54)&7
  3755  0135  2937               	goto	u3721
  3756  0136  2938               	goto	u3720
  3757  0137                     u3721:
  3758  0137  293F               	goto	l822
  3759  0138                     u3720:
  3760                           	line	510
  3761                           	
  3762  0138                     l2878:	
  3763                           ;lcd1.c: 510: return 11;
  3764  0138  300B               	movlw	low(0Bh)
  3765  0139  00F4               	movwf	(?_scan)
  3766  013A  3000               	movlw	high(0Bh)
  3767  013B  00F5               	movwf	((?_scan))+1
  3768  013C  298A               	goto	l804
  3769                           	
  3770  013D                     l2880:	
  3771  013D  298A               	goto	l804
  3772                           	
  3773  013E                     l2882:	
  3774  013E  294C               	goto	l2888
  3775                           	line	511
  3776                           	
  3777  013F                     l822:	
  3778                           ;lcd1.c: 511: else if(RB7==1)
  3779  013F  1F86               	btfss	(55/8),(55)&7
  3780  0140  2942               	goto	u3731
  3781  0141  2943               	goto	u3730
  3782  0142                     u3731:
  3783  0142  294C               	goto	l2888
  3784  0143                     u3730:
  3785                           	line	512
  3786                           	
  3787  0143                     l2884:	
  3788                           ;lcd1.c: 512: return 12;
  3789  0143  300C               	movlw	low(0Ch)
  3790  0144  00F4               	movwf	(?_scan)
  3791  0145  3000               	movlw	high(0Ch)
  3792  0146  00F5               	movwf	((?_scan))+1
  3793  0147  298A               	goto	l804
  3794                           	
  3795  0148                     l2886:	
  3796  0148  298A               	goto	l804
  3797                           	
  3798  0149                     l824:	
  3799  0149  294C               	goto	l2888
  3800                           	line	515
  3801                           	
  3802  014A                     l823:	
  3803  014A  294C               	goto	l2888
  3804                           	
  3805  014B                     l821:	
  3806  014B  294C               	goto	l2888
  3807                           	
  3808  014C                     l819:	
  3809                           	
  3810  014C                     l2888:	
  3811                           ;lcd1.c: 515: actrow(4) ;
  3812  014C  3004               	movlw	low(04h)
  3813  014D  00F2               	movwf	(?_actrow)
  3814  014E  3000               	movlw	high(04h)
  3815  014F  00F3               	movwf	((?_actrow))+1
  3816  0150  120A  158A  25B6   	fcall	_actrow
              120A  118A         
  3817                           	line	517
  3818                           	
  3819  0155                     l2890:	
  3820                           ;lcd1.c: 517: if( RC2==1)
  3821  0155  1283               	bcf	status, 5	;RP0=0, select bank0
  3822  0156  1303               	bcf	status, 6	;RP1=0, select bank0
  3823  0157  1D07               	btfss	(58/8),(58)&7
  3824  0158  295A               	goto	u3741
  3825  0159  295B               	goto	u3740
  3826  015A                     u3741:
  3827  015A  2962               	goto	l825
  3828  015B                     u3740:
  3829                           	line	518
  3830                           	
  3831  015B                     l2892:	
  3832                           ;lcd1.c: 518: return 13;
  3833  015B  300D               	movlw	low(0Dh)
  3834  015C  00F4               	movwf	(?_scan)
  3835  015D  3000               	movlw	high(0Dh)
  3836  015E  00F5               	movwf	((?_scan))+1
  3837  015F  298A               	goto	l804
  3838                           	
  3839  0160                     l2894:	
  3840  0160  298A               	goto	l804
  3841                           	
  3842  0161                     l2896:	
  3843  0161  2985               	goto	l2914
  3844                           	line	519
  3845                           	
  3846  0162                     l825:	
  3847                           ;lcd1.c: 519: else if(RC3==1)
  3848  0162  1D87               	btfss	(59/8),(59)&7
  3849  0163  2965               	goto	u3751
  3850  0164  2966               	goto	u3750
  3851  0165                     u3751:
  3852  0165  296D               	goto	l827
  3853  0166                     u3750:
  3854                           	line	520
  3855                           	
  3856  0166                     l2898:	
  3857                           ;lcd1.c: 520: return 14;
  3858  0166  300E               	movlw	low(0Eh)
  3859  0167  00F4               	movwf	(?_scan)
  3860  0168  3000               	movlw	high(0Eh)
  3861  0169  00F5               	movwf	((?_scan))+1
  3862  016A  298A               	goto	l804
  3863                           	
  3864  016B                     l2900:	
  3865  016B  298A               	goto	l804
  3866                           	
  3867  016C                     l2902:	
  3868  016C  2985               	goto	l2914
  3869                           	line	521
  3870                           	
  3871  016D                     l827:	
  3872                           ;lcd1.c: 521: else if(RB6==1)
  3873  016D  1F06               	btfss	(54/8),(54)&7
  3874  016E  2970               	goto	u3761
  3875  016F  2971               	goto	u3760
  3876  0170                     u3761:
  3877  0170  2978               	goto	l829
  3878  0171                     u3760:
  3879                           	line	522
  3880                           	
  3881  0171                     l2904:	
  3882                           ;lcd1.c: 522: return 15;
  3883  0171  300F               	movlw	low(0Fh)
  3884  0172  00F4               	movwf	(?_scan)
  3885  0173  3000               	movlw	high(0Fh)
  3886  0174  00F5               	movwf	((?_scan))+1
  3887  0175  298A               	goto	l804
  3888                           	
  3889  0176                     l2906:	
  3890  0176  298A               	goto	l804
  3891                           	
  3892  0177                     l2908:	
  3893  0177  2985               	goto	l2914
  3894                           	line	523
  3895                           	
  3896  0178                     l829:	
  3897                           ;lcd1.c: 523: else if(RB7==1)
  3898  0178  1F86               	btfss	(55/8),(55)&7
  3899  0179  297B               	goto	u3771
  3900  017A  297C               	goto	u3770
  3901  017B                     u3771:
  3902  017B  2985               	goto	l2914
  3903  017C                     u3770:
  3904                           	line	524
  3905                           	
  3906  017C                     l2910:	
  3907                           ;lcd1.c: 524: return 16;
  3908  017C  3010               	movlw	low(010h)
  3909  017D  00F4               	movwf	(?_scan)
  3910  017E  3000               	movlw	high(010h)
  3911  017F  00F5               	movwf	((?_scan))+1
  3912  0180  298A               	goto	l804
  3913                           	
  3914  0181                     l2912:	
  3915  0181  298A               	goto	l804
  3916                           	
  3917  0182                     l831:	
  3918  0182  2985               	goto	l2914
  3919                           	line	528
  3920                           	
  3921  0183                     l830:	
  3922  0183  2985               	goto	l2914
  3923                           	
  3924  0184                     l828:	
  3925  0184  2985               	goto	l2914
  3926                           	
  3927  0185                     l826:	
  3928                           	
  3929  0185                     l2914:	
  3930                           ;lcd1.c: 528: return 99;
  3931  0185  3063               	movlw	low(063h)
  3932  0186  00F4               	movwf	(?_scan)
  3933  0187  3000               	movlw	high(063h)
  3934  0188  00F5               	movwf	((?_scan))+1
  3935  0189  298A               	goto	l804
  3936                           	
  3937  018A                     l2916:	
  3938                           	line	532
  3939                           	
  3940  018A                     l804:	
  3941  018A  0008               	return
  3942                           	opt stack 0
  3943                           GLOBAL	__end_of_scan
  3944  018B                     	__end_of_scan:
  3945 ;; =============== function _scan ends ============
  3946                           
  3947                           	signat	_scan,90
  3948                           	global	_initlcd
  3949                           psect	text445,local,class=CODE,delta=2
  3950                           global __ptext445
  3951  0D83                     __ptext445:
  3952                           
  3953 ;; *************** function _initlcd *****************
  3954 ;; Defined at:
  3955 ;;		line 324 in file "C:\PIC\PROJECTS\Training_Project\Code\LCD\lcd1.c"
  3956 ;; Parameters:    Size  Location     Type
  3957 ;;		None
  3958 ;; Auto vars:     Size  Location     Type
  3959 ;;		None
  3960 ;; Return value:  Size  Location     Type
  3961 ;;		None               void
  3962 ;; Registers used:
  3963 ;;		wreg, fsr0l, fsr0h, status,2, status,0, btemp+1, pclath, cstack
  3964 ;; Tracked objects:
  3965 ;;		On entry : 0/0
  3966 ;;		On exit  : 0/0
  3967 ;;		Unchanged: 0/0
  3968 ;; Data sizes:     COMMON   BANK0   BANK1   BANK3   BANK2
  3969 ;;      Params:         0       0       0       0       0
  3970 ;;      Locals:         0       0       0       0       0
  3971 ;;      Temps:          0       0       0       0       0
  3972 ;;      Totals:         0       0       0       0       0
  3973 ;;Total ram usage:        0 bytes
  3974 ;; Hardware stack levels used:    1
  3975 ;; Hardware stack levels required when called:    3
  3976 ;; This function calls:
  3977 ;;		_cmd
  3978 ;; This function is called by:
  3979 ;;		_main
  3980 ;; This function uses a non-reentrant model
  3981 ;;
  3982                           psect	text445
  3983                           	file	"C:\PIC\PROJECTS\Training_Project\Code\LCD\lcd1.c"
  3984                           	line	324
  3985                           	global	__size_of_initlcd
  3986  0033                     	__size_of_initlcd	equ	__end_of_initlcd-_initlcd
  3987                           	
  3988  0D83                     _initlcd:	
  3989                           	opt	stack 4
  3990                           ; Regs used in _initlcd: [wreg-fsr0h+status,2+status,0+btemp+1+pclath+cstack]
  3991                           	line	326
  3992                           	
  3993  0D83                     l2796:	
  3994                           ;lcd1.c: 326: TRISC=0b00001100;
  3995  0D83  300C               	movlw	(0Ch)
  3996  0D84  1683               	bsf	status, 5	;RP0=1, select bank1
  3997  0D85  1303               	bcf	status, 6	;RP1=0, select bank1
  3998  0D86  0087               	movwf	(135)^080h	;volatile
  3999                           	line	328
  4000                           	
  4001  0D87                     l2798:	
  4002                           ;lcd1.c: 328: TRISD=0x00;
  4003  0D87  0188               	clrf	(136)^080h	;volatile
  4004                           	line	330
  4005                           	
  4006  0D88                     l2800:	
  4007                           ;lcd1.c: 330: cmd(0x38);
  4008  0D88  3038               	movlw	low(038h)
  4009  0D89  00F8               	movwf	(?_cmd)
  4010  0D8A  3000               	movlw	high(038h)
  4011  0D8B  00F9               	movwf	((?_cmd))+1
  4012  0D8C  120A  158A  24BE   	fcall	_cmd
              120A  158A         
  4013                           	line	332
  4014                           	
  4015  0D91                     l2802:	
  4016                           ;lcd1.c: 332: cmd(0x0C);
  4017  0D91  300C               	movlw	low(0Ch)
  4018  0D92  00F8               	movwf	(?_cmd)
  4019  0D93  3000               	movlw	high(0Ch)
  4020  0D94  00F9               	movwf	((?_cmd))+1
  4021  0D95  120A  158A  24BE   	fcall	_cmd
              120A  158A         
  4022                           	line	334
  4023                           	
  4024  0D9A                     l2804:	
  4025                           ;lcd1.c: 334: cmd(0x01);
  4026  0D9A  3001               	movlw	low(01h)
  4027  0D9B  00F8               	movwf	(?_cmd)
  4028  0D9C  3000               	movlw	high(01h)
  4029  0D9D  00F9               	movwf	((?_cmd))+1
  4030  0D9E  120A  158A  24BE   	fcall	_cmd
              120A  158A         
  4031                           	line	336
  4032                           	
  4033  0DA3                     l2806:	
  4034                           ;lcd1.c: 336: cmd(0x80);
  4035  0DA3  3080               	movlw	low(080h)
  4036  0DA4  00F8               	movwf	(?_cmd)
  4037  0DA5  3000               	movlw	high(080h)
  4038  0DA6  00F9               	movwf	((?_cmd))+1
  4039  0DA7  120A  158A  24BE   	fcall	_cmd
              120A  158A         
  4040                           	line	338
  4041                           	
  4042  0DAC                     l2808:	
  4043                           ;lcd1.c: 338: cmd(0x0f);
  4044  0DAC  300F               	movlw	low(0Fh)
  4045  0DAD  00F8               	movwf	(?_cmd)
  4046  0DAE  3000               	movlw	high(0Fh)
  4047  0DAF  00F9               	movwf	((?_cmd))+1
  4048  0DB0  120A  158A  24BE   	fcall	_cmd
              120A  158A         
  4049                           	line	340
  4050                           	
  4051  0DB5                     l757:	
  4052  0DB5  0008               	return
  4053                           	opt stack 0
  4054                           GLOBAL	__end_of_initlcd
  4055  0DB6                     	__end_of_initlcd:
  4056 ;; =============== function _initlcd ends ============
  4057                           
  4058                           	signat	_initlcd,88
  4059                           	global	_actrow
  4060                           psect	text446,local,class=CODE,delta=2
  4061                           global __ptext446
  4062  0DB6                     __ptext446:
  4063                           
  4064 ;; *************** function _actrow *****************
  4065 ;; Defined at:
  4066 ;;		line 540 in file "C:\PIC\PROJECTS\Training_Project\Code\LCD\lcd1.c"
  4067 ;; Parameters:    Size  Location     Type
  4068 ;;  n               2    2[COMMON] int 
  4069 ;; Auto vars:     Size  Location     Type
  4070 ;;		None
  4071 ;; Return value:  Size  Location     Type
  4072 ;;		None               void
  4073 ;; Registers used:
  4074 ;;		wreg, status,2, status,0, pclath, cstack
  4075 ;; Tracked objects:
  4076 ;;		On entry : 0/0
  4077 ;;		On exit  : 0/0
  4078 ;;		Unchanged: 0/0
  4079 ;; Data sizes:     COMMON   BANK0   BANK1   BANK3   BANK2
  4080 ;;      Params:         2       0       0       0       0
  4081 ;;      Locals:         0       0       0       0       0
  4082 ;;      Temps:          0       0       0       0       0
  4083 ;;      Totals:         2       0       0       0       0
  4084 ;;Total ram usage:        2 bytes
  4085 ;; Hardware stack levels used:    1
  4086 ;; Hardware stack levels required when called:    1
  4087 ;; This function calls:
  4088 ;;		_resetout
  4089 ;;		_delay
  4090 ;; This function is called by:
  4091 ;;		_scan
  4092 ;; This function uses a non-reentrant model
  4093 ;;
  4094                           psect	text446
  4095                           	file	"C:\PIC\PROJECTS\Training_Project\Code\LCD\lcd1.c"
  4096                           	line	540
  4097                           	global	__size_of_actrow
  4098  003E                     	__size_of_actrow	equ	__end_of_actrow-_actrow
  4099                           	
  4100  0DB6                     _actrow:	
  4101                           	opt	stack 4
  4102                           ; Regs used in _actrow: [wreg+status,2+status,0+pclath+cstack]
  4103                           	line	541
  4104                           	
  4105  0DB6                     l2776:	
  4106                           ;lcd1.c: 541: resetout();
  4107  0DB6  120A  158A  2445   	fcall	_resetout
              120A  158A         
  4108                           	line	543
  4109                           	
  4110  0DBB                     l2778:	
  4111                           ;lcd1.c: 543: if(n==1)
  4112  0DBB  3001               	movlw	01h
  4113  0DBC  0672               	xorwf	(actrow@n),w
  4114  0DBD  0473               	iorwf	(actrow@n+1),w
  4115  0DBE  1D03               	skipz
  4116  0DBF  2DC1               	goto	u3581
  4117  0DC0  2DC2               	goto	u3580
  4118  0DC1                     u3581:
  4119  0DC1  2DC6               	goto	l2782
  4120  0DC2                     u3580:
  4121                           	line	545
  4122                           	
  4123  0DC2                     l2780:	
  4124                           ;lcd1.c: 544: {
  4125                           ;lcd1.c: 545: RB0=1;
  4126  0DC2  1283               	bcf	status, 5	;RP0=0, select bank0
  4127  0DC3  1303               	bcf	status, 6	;RP1=0, select bank0
  4128  0DC4  1406               	bsf	(48/8),(48)&7
  4129                           	line	546
  4130                           ;lcd1.c: 546: }
  4131  0DC5  2DEA               	goto	l2794
  4132                           	line	547
  4133                           	
  4134  0DC6                     l837:	
  4135                           	
  4136  0DC6                     l2782:	
  4137                           ;lcd1.c: 547: else if(n==2)
  4138  0DC6  3002               	movlw	02h
  4139  0DC7  0672               	xorwf	(actrow@n),w
  4140  0DC8  0473               	iorwf	(actrow@n+1),w
  4141  0DC9  1D03               	skipz
  4142  0DCA  2DCC               	goto	u3591
  4143  0DCB  2DCD               	goto	u3590
  4144  0DCC                     u3591:
  4145  0DCC  2DD1               	goto	l2786
  4146  0DCD                     u3590:
  4147                           	line	549
  4148                           	
  4149  0DCD                     l2784:	
  4150                           ;lcd1.c: 548: {
  4151                           ;lcd1.c: 549: RB1=1;
  4152  0DCD  1283               	bcf	status, 5	;RP0=0, select bank0
  4153  0DCE  1303               	bcf	status, 6	;RP1=0, select bank0
  4154  0DCF  1486               	bsf	(49/8),(49)&7
  4155                           	line	550
  4156                           ;lcd1.c: 550: }
  4157  0DD0  2DEA               	goto	l2794
  4158                           	line	551
  4159                           	
  4160  0DD1                     l839:	
  4161                           	
  4162  0DD1                     l2786:	
  4163                           ;lcd1.c: 551: else if(n==3)
  4164  0DD1  3003               	movlw	03h
  4165  0DD2  0672               	xorwf	(actrow@n),w
  4166  0DD3  0473               	iorwf	(actrow@n+1),w
  4167  0DD4  1D03               	skipz
  4168  0DD5  2DD7               	goto	u3601
  4169  0DD6  2DD8               	goto	u3600
  4170  0DD7                     u3601:
  4171  0DD7  2DDC               	goto	l2790
  4172  0DD8                     u3600:
  4173                           	line	553
  4174                           	
  4175  0DD8                     l2788:	
  4176                           ;lcd1.c: 552: {
  4177                           ;lcd1.c: 553: RB2=1;
  4178  0DD8  1283               	bcf	status, 5	;RP0=0, select bank0
  4179  0DD9  1303               	bcf	status, 6	;RP1=0, select bank0
  4180  0DDA  1506               	bsf	(50/8),(50)&7
  4181                           	line	554
  4182                           ;lcd1.c: 554: }
  4183  0DDB  2DEA               	goto	l2794
  4184                           	line	555
  4185                           	
  4186  0DDC                     l841:	
  4187                           	
  4188  0DDC                     l2790:	
  4189                           ;lcd1.c: 555: else if(n==4)
  4190  0DDC  3004               	movlw	04h
  4191  0DDD  0672               	xorwf	(actrow@n),w
  4192  0DDE  0473               	iorwf	(actrow@n+1),w
  4193  0DDF  1D03               	skipz
  4194  0DE0  2DE2               	goto	u3611
  4195  0DE1  2DE3               	goto	u3610
  4196  0DE2                     u3611:
  4197  0DE2  2DEA               	goto	l2794
  4198  0DE3                     u3610:
  4199                           	line	557
  4200                           	
  4201  0DE3                     l2792:	
  4202                           ;lcd1.c: 556: {
  4203                           ;lcd1.c: 557: RB3=1;
  4204  0DE3  1283               	bcf	status, 5	;RP0=0, select bank0
  4205  0DE4  1303               	bcf	status, 6	;RP1=0, select bank0
  4206  0DE5  1586               	bsf	(51/8),(51)&7
  4207  0DE6  2DEA               	goto	l2794
  4208                           	line	558
  4209                           	
  4210  0DE7                     l843:	
  4211  0DE7  2DEA               	goto	l2794
  4212                           	line	559
  4213                           	
  4214  0DE8                     l842:	
  4215  0DE8  2DEA               	goto	l2794
  4216                           	
  4217  0DE9                     l840:	
  4218  0DE9  2DEA               	goto	l2794
  4219                           	
  4220  0DEA                     l838:	
  4221                           	
  4222  0DEA                     l2794:	
  4223                           ;lcd1.c: 558: }
  4224                           ;lcd1.c: 559: delay(200);
  4225  0DEA  30C8               	movlw	low(0C8h)
  4226  0DEB  00F0               	movwf	(?_delay)
  4227  0DEC  3000               	movlw	high(0C8h)
  4228  0DED  00F1               	movwf	((?_delay))+1
  4229  0DEE  120A  158A  2475   	fcall	_delay
              120A  158A         
  4230                           	line	562
  4231                           	
  4232  0DF3                     l844:	
  4233  0DF3  0008               	return
  4234                           	opt stack 0
  4235                           GLOBAL	__end_of_actrow
  4236  0DF4                     	__end_of_actrow:
  4237 ;; =============== function _actrow ends ============
  4238                           
  4239                           	signat	_actrow,4216
  4240                           	global	_dat
  4241                           psect	text447,local,class=CODE,delta=2
  4242                           global __ptext447
  4243  0CE3                     __ptext447:
  4244                           
  4245 ;; *************** function _dat *****************
  4246 ;; Defined at:
  4247 ;;		line 357 in file "C:\PIC\PROJECTS\Training_Project\Code\LCD\lcd1.c"
  4248 ;; Parameters:    Size  Location     Type
  4249 ;;  Command         2    8[COMMON] unsigned int 
  4250 ;; Auto vars:     Size  Location     Type
  4251 ;;		None
  4252 ;; Return value:  Size  Location     Type
  4253 ;;		None               void
  4254 ;; Registers used:
  4255 ;;		wreg, fsr0l, fsr0h, status,2, status,0, btemp+1, pclath, cstack
  4256 ;; Tracked objects:
  4257 ;;		On entry : 0/0
  4258 ;;		On exit  : 0/0
  4259 ;;		Unchanged: 0/0
  4260 ;; Data sizes:     COMMON   BANK0   BANK1   BANK3   BANK2
  4261 ;;      Params:         2       0       0       0       0
  4262 ;;      Locals:         0       0       0       0       0
  4263 ;;      Temps:          0       0       0       0       0
  4264 ;;      Totals:         2       0       0       0       0
  4265 ;;Total ram usage:        2 bytes
  4266 ;; Hardware stack levels used:    1
  4267 ;; Hardware stack levels required when called:    2
  4268 ;; This function calls:
  4269 ;;		_setLCD
  4270 ;;		_delay
  4271 ;; This function is called by:
  4272 ;;		_write
  4273 ;; This function uses a non-reentrant model
  4274 ;;
  4275                           psect	text447
  4276                           	file	"C:\PIC\PROJECTS\Training_Project\Code\LCD\lcd1.c"
  4277                           	line	357
  4278                           	global	__size_of_dat
  4279  0025                     	__size_of_dat	equ	__end_of_dat-_dat
  4280                           	
  4281  0CE3                     _dat:	
  4282                           	opt	stack 3
  4283                           ; Regs used in _dat: [wreg-fsr0h+status,2+status,0+btemp+1+pclath+cstack]
  4284                           	line	358
  4285                           	
  4286  0CE3                     l2764:	
  4287                           ;lcd1.c: 358: setLCD(Command);
  4288  0CE3  0879               	movf	(dat@Command+1),w
  4289  0CE4  01F1               	clrf	(?_setLCD+1)
  4290  0CE5  07F1               	addwf	(?_setLCD+1)
  4291  0CE6  0878               	movf	(dat@Command),w
  4292  0CE7  01F0               	clrf	(?_setLCD)
  4293  0CE8  07F0               	addwf	(?_setLCD)
  4294                           
  4295  0CE9  120A  118A  2276   	fcall	_setLCD
              120A  158A         
  4296                           	line	360
  4297                           	
  4298  0CEE                     l2766:	
  4299                           ;lcd1.c: 360: RC0=1;
  4300  0CEE  1283               	bcf	status, 5	;RP0=0, select bank0
  4301  0CEF  1303               	bcf	status, 6	;RP1=0, select bank0
  4302  0CF0  1407               	bsf	(56/8),(56)&7
  4303                           	line	362
  4304                           	
  4305  0CF1                     l2768:	
  4306                           ;lcd1.c: 362: RC1=1;
  4307  0CF1  1487               	bsf	(57/8),(57)&7
  4308                           	line	364
  4309                           	
  4310  0CF2                     l2770:	
  4311                           ;lcd1.c: 364: delay(20);
  4312  0CF2  3014               	movlw	low(014h)
  4313  0CF3  00F0               	movwf	(?_delay)
  4314  0CF4  3000               	movlw	high(014h)
  4315  0CF5  00F1               	movwf	((?_delay))+1
  4316  0CF6  120A  158A  2475   	fcall	_delay
              120A  158A         
  4317                           	line	366
  4318                           	
  4319  0CFB                     l2772:	
  4320                           ;lcd1.c: 366: RC1=0;
  4321  0CFB  1283               	bcf	status, 5	;RP0=0, select bank0
  4322  0CFC  1303               	bcf	status, 6	;RP1=0, select bank0
  4323  0CFD  1087               	bcf	(57/8),(57)&7
  4324                           	line	368
  4325                           	
  4326  0CFE                     l2774:	
  4327                           ;lcd1.c: 368: delay(20);
  4328  0CFE  3014               	movlw	low(014h)
  4329  0CFF  00F0               	movwf	(?_delay)
  4330  0D00  3000               	movlw	high(014h)
  4331  0D01  00F1               	movwf	((?_delay))+1
  4332  0D02  120A  158A  2475   	fcall	_delay
              120A  158A         
  4333                           	line	374
  4334                           	
  4335  0D07                     l766:	
  4336  0D07  0008               	return
  4337                           	opt stack 0
  4338                           GLOBAL	__end_of_dat
  4339  0D08                     	__end_of_dat:
  4340 ;; =============== function _dat ends ============
  4341                           
  4342                           	signat	_dat,4216
  4343                           	global	_cmd
  4344                           psect	text448,local,class=CODE,delta=2
  4345                           global __ptext448
  4346  0CBE                     __ptext448:
  4347                           
  4348 ;; *************** function _cmd *****************
  4349 ;; Defined at:
  4350 ;;		line 346 in file "C:\PIC\PROJECTS\Training_Project\Code\LCD\lcd1.c"
  4351 ;; Parameters:    Size  Location     Type
  4352 ;;  Command         2    8[COMMON] unsigned int 
  4353 ;; Auto vars:     Size  Location     Type
  4354 ;;		None
  4355 ;; Return value:  Size  Location     Type
  4356 ;;		None               void
  4357 ;; Registers used:
  4358 ;;		wreg, fsr0l, fsr0h, status,2, status,0, btemp+1, pclath, cstack
  4359 ;; Tracked objects:
  4360 ;;		On entry : 0/0
  4361 ;;		On exit  : 0/0
  4362 ;;		Unchanged: 0/0
  4363 ;; Data sizes:     COMMON   BANK0   BANK1   BANK3   BANK2
  4364 ;;      Params:         2       0       0       0       0
  4365 ;;      Locals:         0       0       0       0       0
  4366 ;;      Temps:          0       0       0       0       0
  4367 ;;      Totals:         2       0       0       0       0
  4368 ;;Total ram usage:        2 bytes
  4369 ;; Hardware stack levels used:    1
  4370 ;; Hardware stack levels required when called:    2
  4371 ;; This function calls:
  4372 ;;		_setLCD
  4373 ;;		_delay
  4374 ;; This function is called by:
  4375 ;;		_initlcd
  4376 ;;		_clearlcd
  4377 ;;		_write
  4378 ;;		_scroll
  4379 ;; This function uses a non-reentrant model
  4380 ;;
  4381                           psect	text448
  4382                           	file	"C:\PIC\PROJECTS\Training_Project\Code\LCD\lcd1.c"
  4383                           	line	346
  4384                           	global	__size_of_cmd
  4385  0025                     	__size_of_cmd	equ	__end_of_cmd-_cmd
  4386                           	
  4387  0CBE                     _cmd:	
  4388                           	opt	stack 3
  4389                           ; Regs used in _cmd: [wreg-fsr0h+status,2+status,0+btemp+1+pclath+cstack]
  4390                           	line	347
  4391                           	
  4392  0CBE                     l2752:	
  4393                           ;lcd1.c: 347: setLCD(Command);
  4394  0CBE  0879               	movf	(cmd@Command+1),w
  4395  0CBF  01F1               	clrf	(?_setLCD+1)
  4396  0CC0  07F1               	addwf	(?_setLCD+1)
  4397  0CC1  0878               	movf	(cmd@Command),w
  4398  0CC2  01F0               	clrf	(?_setLCD)
  4399  0CC3  07F0               	addwf	(?_setLCD)
  4400                           
  4401  0CC4  120A  118A  2276   	fcall	_setLCD
              120A  158A         
  4402                           	line	348
  4403                           	
  4404  0CC9                     l2754:	
  4405                           ;lcd1.c: 348: RC0=0;
  4406  0CC9  1283               	bcf	status, 5	;RP0=0, select bank0
  4407  0CCA  1303               	bcf	status, 6	;RP1=0, select bank0
  4408  0CCB  1007               	bcf	(56/8),(56)&7
  4409                           	line	349
  4410                           	
  4411  0CCC                     l2756:	
  4412                           ;lcd1.c: 349: RC1=1;
  4413  0CCC  1487               	bsf	(57/8),(57)&7
  4414                           	line	350
  4415                           	
  4416  0CCD                     l2758:	
  4417                           ;lcd1.c: 350: delay(20);
  4418  0CCD  3014               	movlw	low(014h)
  4419  0CCE  00F0               	movwf	(?_delay)
  4420  0CCF  3000               	movlw	high(014h)
  4421  0CD0  00F1               	movwf	((?_delay))+1
  4422  0CD1  120A  158A  2475   	fcall	_delay
              120A  158A         
  4423                           	line	351
  4424                           	
  4425  0CD6                     l2760:	
  4426                           ;lcd1.c: 351: RC1=0;
  4427  0CD6  1283               	bcf	status, 5	;RP0=0, select bank0
  4428  0CD7  1303               	bcf	status, 6	;RP1=0, select bank0
  4429  0CD8  1087               	bcf	(57/8),(57)&7
  4430                           	line	352
  4431                           	
  4432  0CD9                     l2762:	
  4433                           ;lcd1.c: 352: delay(20);
  4434  0CD9  3014               	movlw	low(014h)
  4435  0CDA  00F0               	movwf	(?_delay)
  4436  0CDB  3000               	movlw	high(014h)
  4437  0CDC  00F1               	movwf	((?_delay))+1
  4438  0CDD  120A  158A  2475   	fcall	_delay
              120A  158A         
  4439                           	line	354
  4440                           	
  4441  0CE2                     l763:	
  4442  0CE2  0008               	return
  4443                           	opt stack 0
  4444                           GLOBAL	__end_of_cmd
  4445  0CE3                     	__end_of_cmd:
  4446 ;; =============== function _cmd ends ============
  4447                           
  4448                           	signat	_cmd,4216
  4449                           	global	_itoaa
  4450                           psect	text449,local,class=CODE,delta=2
  4451                           global __ptext449
  4452  018B                     __ptext449:
  4453                           
  4454 ;; *************** function _itoaa *****************
  4455 ;; Defined at:
  4456 ;;		line 297 in file "C:\PIC\PROJECTS\Training_Project\Code\LCD\lcd1.c"
  4457 ;; Parameters:    Size  Location     Type
  4458 ;;  value           2    9[COMMON] int 
  4459 ;;  ptr             1   11[COMMON] PTR unsigned char 
  4460 ;;		 -> getlogicseq@snum(16), 
  4461 ;; Auto vars:     Size  Location     Type
  4462 ;;  temp            2    2[BANK0 ] int 
  4463 ;;  count           2    0[BANK0 ] int 
  4464 ;; Return value:  Size  Location     Type
  4465 ;;                  2    9[COMMON] int 
  4466 ;; Registers used:
  4467 ;;		wreg, fsr0l, fsr0h, status,2, status,0, btemp+1, pclath, cstack
  4468 ;; Tracked objects:
  4469 ;;		On entry : 0/0
  4470 ;;		On exit  : 0/0
  4471 ;;		Unchanged: 0/0
  4472 ;; Data sizes:     COMMON   BANK0   BANK1   BANK3   BANK2
  4473 ;;      Params:         3       0       0       0       0
  4474 ;;      Locals:         0       4       0       0       0
  4475 ;;      Temps:          1       0       0       0       0
  4476 ;;      Totals:         4       4       0       0       0
  4477 ;;Total ram usage:        8 bytes
  4478 ;; Hardware stack levels used:    1
  4479 ;; Hardware stack levels required when called:    1
  4480 ;; This function calls:
  4481 ;;		___wmul
  4482 ;;		___awdiv
  4483 ;;		___awmod
  4484 ;; This function is called by:
  4485 ;;		_getlogicseq
  4486 ;; This function uses a non-reentrant model
  4487 ;;
  4488                           psect	text449
  4489                           	file	"C:\PIC\PROJECTS\Training_Project\Code\LCD\lcd1.c"
  4490                           	line	297
  4491                           	global	__size_of_itoaa
  4492  00EB                     	__size_of_itoaa	equ	__end_of_itoaa-_itoaa
  4493                           	
  4494  018B                     _itoaa:	
  4495                           	opt	stack 5
  4496                           ; Regs used in _itoaa: [wreg-fsr0h+status,2+status,0+btemp+1+pclath+cstack]
  4497                           	line	298
  4498                           	
  4499  018B                     l2704:	
  4500                           ;lcd1.c: 298: int count=0,temp;
  4501  018B  1283               	bcf	status, 5	;RP0=0, select bank0
  4502  018C  1303               	bcf	status, 6	;RP1=0, select bank0
  4503  018D  01A0               	clrf	(itoaa@count)
  4504  018E  01A1               	clrf	(itoaa@count+1)
  4505                           	line	299
  4506                           	
  4507  018F                     l2706:	
  4508                           ;lcd1.c: 299: if(ptr==(0))
  4509  018F  08FB               	movf	(itoaa@ptr),f
  4510  0190  1D03               	skipz
  4511  0191  2993               	goto	u3511
  4512  0192  2994               	goto	u3510
  4513  0193                     u3511:
  4514  0193  2996               	goto	l2710
  4515  0194                     u3510:
  4516  0194  2A75               	goto	l748
  4517                           	line	300
  4518                           	
  4519  0195                     l2708:	
  4520                           ;lcd1.c: 300: return 0;
  4521                           ;	Return value of _itoaa is never used
  4522  0195  2A75               	goto	l748
  4523                           	
  4524  0196                     l747:	
  4525                           	line	301
  4526                           	
  4527  0196                     l2710:	
  4528                           ;lcd1.c: 301: if(value==0)
  4529  0196  087A               	movf	((itoaa@value+1)),w
  4530  0197  0479               	iorwf	((itoaa@value)),w
  4531  0198  1D03               	skipz
  4532  0199  299B               	goto	u3521
  4533  019A  299C               	goto	u3520
  4534  019B                     u3521:
  4535  019B  29A5               	goto	l749
  4536  019C                     u3520:
  4537                           	line	303
  4538                           	
  4539  019C                     l2712:	
  4540                           ;lcd1.c: 302: {
  4541                           ;lcd1.c: 303: *ptr='0';
  4542  019C  3030               	movlw	(030h)
  4543  019D  00FC               	movwf	(??_itoaa+0)+0
  4544  019E  087B               	movf	(itoaa@ptr),w
  4545  019F  0084               	movwf	fsr0
  4546  01A0  087C               	movf	(??_itoaa+0)+0,w
  4547  01A1  1383               	bcf	status, 7	;select IRP bank0
  4548  01A2  0080               	movwf	indf
  4549  01A3  2A75               	goto	l748
  4550                           	line	304
  4551                           	
  4552  01A4                     l2714:	
  4553                           ;lcd1.c: 304: return 1;
  4554                           ;	Return value of _itoaa is never used
  4555  01A4  2A75               	goto	l748
  4556                           	line	305
  4557                           	
  4558  01A5                     l749:	
  4559                           	line	307
  4560                           ;lcd1.c: 305: }
  4561                           ;lcd1.c: 307: if(value<0)
  4562  01A5  1FFA               	btfss	(itoaa@value+1),7
  4563  01A6  29A8               	goto	u3531
  4564  01A7  29A9               	goto	u3530
  4565  01A8                     u3531:
  4566  01A8  29D2               	goto	l2724
  4567  01A9                     u3530:
  4568                           	line	309
  4569                           	
  4570  01A9                     l2716:	
  4571                           ;lcd1.c: 308: {
  4572                           ;lcd1.c: 309: value*=(-1);
  4573  01A9  30FF               	movlw	low(-1)
  4574  01AA  00F0               	movwf	(?___wmul)
  4575  01AB  30FF               	movlw	high(-1)
  4576  01AC  00F1               	movwf	((?___wmul))+1
  4577  01AD  087A               	movf	(itoaa@value+1),w
  4578  01AE  01F3               	clrf	1+(?___wmul)+02h
  4579  01AF  07F3               	addwf	1+(?___wmul)+02h
  4580  01B0  0879               	movf	(itoaa@value),w
  4581  01B1  01F2               	clrf	0+(?___wmul)+02h
  4582  01B2  07F2               	addwf	0+(?___wmul)+02h
  4583                           
  4584  01B3  120A  158A  2559   	fcall	___wmul
              120A  118A         
  4585  01B8  0871               	movf	(1+(?___wmul)),w
  4586  01B9  01FA               	clrf	(itoaa@value+1)
  4587  01BA  07FA               	addwf	(itoaa@value+1)
  4588  01BB  0870               	movf	(0+(?___wmul)),w
  4589  01BC  01F9               	clrf	(itoaa@value)
  4590  01BD  07F9               	addwf	(itoaa@value)
  4591                           
  4592                           	line	310
  4593                           	
  4594  01BE                     l2718:	
  4595                           ;lcd1.c: 310: *ptr++='-';
  4596  01BE  302D               	movlw	(02Dh)
  4597  01BF  00FC               	movwf	(??_itoaa+0)+0
  4598  01C0  087B               	movf	(itoaa@ptr),w
  4599  01C1  0084               	movwf	fsr0
  4600  01C2  087C               	movf	(??_itoaa+0)+0,w
  4601  01C3  1383               	bcf	status, 7	;select IRP bank0
  4602  01C4  0080               	movwf	indf
  4603                           	
  4604  01C5                     l2720:	
  4605  01C5  3001               	movlw	(01h)
  4606  01C6  00FC               	movwf	(??_itoaa+0)+0
  4607  01C7  087C               	movf	(??_itoaa+0)+0,w
  4608  01C8  07FB               	addwf	(itoaa@ptr),f
  4609                           	line	311
  4610                           	
  4611  01C9                     l2722:	
  4612                           ;lcd1.c: 311: count++;
  4613  01C9  3001               	movlw	low(01h)
  4614  01CA  1283               	bcf	status, 5	;RP0=0, select bank0
  4615  01CB  1303               	bcf	status, 6	;RP1=0, select bank0
  4616  01CC  07A0               	addwf	(itoaa@count),f
  4617  01CD  1803               	skipnc
  4618  01CE  0AA1               	incf	(itoaa@count+1),f
  4619  01CF  3000               	movlw	high(01h)
  4620  01D0  07A1               	addwf	(itoaa@count+1),f
  4621  01D1  29D2               	goto	l2724
  4622                           	line	312
  4623                           	
  4624  01D2                     l750:	
  4625                           	line	313
  4626                           	
  4627  01D2                     l2724:	
  4628                           ;lcd1.c: 312: }
  4629                           ;lcd1.c: 313: for(temp=value;temp>0;temp/=10,ptr++);
  4630  01D2  087A               	movf	(itoaa@value+1),w
  4631  01D3  01A3               	clrf	(itoaa@temp+1)
  4632  01D4  07A3               	addwf	(itoaa@temp+1)
  4633  01D5  0879               	movf	(itoaa@value),w
  4634  01D6  01A2               	clrf	(itoaa@temp)
  4635  01D7  07A2               	addwf	(itoaa@temp)
  4636                           
  4637                           	
  4638  01D8                     l2726:	
  4639  01D8  0823               	movf	(itoaa@temp+1),w
  4640  01D9  3A80               	xorlw	80h
  4641  01DA  00FF               	movwf	btemp+1
  4642  01DB  3080               	movlw	(high(01h))^80h
  4643  01DC  027F               	subwf	btemp+1,w
  4644  01DD  1D03               	skipz
  4645  01DE  29E1               	goto	u3545
  4646  01DF  3001               	movlw	low(01h)
  4647  01E0  0222               	subwf	(itoaa@temp),w
  4648  01E1                     u3545:
  4649                           
  4650  01E1  1803               	skipnc
  4651  01E2  29E4               	goto	u3541
  4652  01E3  29E5               	goto	u3540
  4653  01E4                     u3541:
  4654  01E4  29E7               	goto	l2730
  4655  01E5                     u3540:
  4656  01E5  2A12               	goto	l2736
  4657                           	
  4658  01E6                     l2728:	
  4659  01E6  2A12               	goto	l2736
  4660                           	
  4661  01E7                     l751:	
  4662                           	
  4663  01E7                     l2730:	
  4664  01E7  300A               	movlw	low(0Ah)
  4665  01E8  00F0               	movwf	(?___awdiv)
  4666  01E9  3000               	movlw	high(0Ah)
  4667  01EA  00F1               	movwf	((?___awdiv))+1
  4668  01EB  1283               	bcf	status, 5	;RP0=0, select bank0
  4669  01EC  1303               	bcf	status, 6	;RP1=0, select bank0
  4670  01ED  0823               	movf	(itoaa@temp+1),w
  4671  01EE  01F3               	clrf	1+(?___awdiv)+02h
  4672  01EF  07F3               	addwf	1+(?___awdiv)+02h
  4673  01F0  0822               	movf	(itoaa@temp),w
  4674  01F1  01F2               	clrf	0+(?___awdiv)+02h
  4675  01F2  07F2               	addwf	0+(?___awdiv)+02h
  4676                           
  4677  01F3  120A  158A  26BE   	fcall	___awdiv
              120A  118A         
  4678  01F8  0871               	movf	(1+(?___awdiv)),w
  4679  01F9  1283               	bcf	status, 5	;RP0=0, select bank0
  4680  01FA  1303               	bcf	status, 6	;RP1=0, select bank0
  4681  01FB  01A3               	clrf	(itoaa@temp+1)
  4682  01FC  07A3               	addwf	(itoaa@temp+1)
  4683  01FD  0870               	movf	(0+(?___awdiv)),w
  4684  01FE  01A2               	clrf	(itoaa@temp)
  4685  01FF  07A2               	addwf	(itoaa@temp)
  4686                           
  4687                           	
  4688  0200                     l2732:	
  4689  0200  3001               	movlw	(01h)
  4690  0201  00FC               	movwf	(??_itoaa+0)+0
  4691  0202  087C               	movf	(??_itoaa+0)+0,w
  4692  0203  07FB               	addwf	(itoaa@ptr),f
  4693                           	
  4694  0204                     l2734:	
  4695  0204  0823               	movf	(itoaa@temp+1),w
  4696  0205  3A80               	xorlw	80h
  4697  0206  00FF               	movwf	btemp+1
  4698  0207  3080               	movlw	(high(01h))^80h
  4699  0208  027F               	subwf	btemp+1,w
  4700  0209  1D03               	skipz
  4701  020A  2A0D               	goto	u3555
  4702  020B  3001               	movlw	low(01h)
  4703  020C  0222               	subwf	(itoaa@temp),w
  4704  020D                     u3555:
  4705                           
  4706  020D  1803               	skipnc
  4707  020E  2A10               	goto	u3551
  4708  020F  2A11               	goto	u3550
  4709  0210                     u3551:
  4710  0210  29E7               	goto	l2730
  4711  0211                     u3550:
  4712  0211  2A12               	goto	l2736
  4713                           	
  4714  0212                     l752:	
  4715                           	line	314
  4716                           	
  4717  0212                     l2736:	
  4718                           ;lcd1.c: 314: *ptr='\0';
  4719  0212  087B               	movf	(itoaa@ptr),w
  4720  0213  0084               	movwf	fsr0
  4721  0214  1383               	bcf	status, 7	;select IRP bank0
  4722  0215  0180               	clrf	indf
  4723                           	line	315
  4724                           	
  4725  0216                     l2738:	
  4726                           ;lcd1.c: 315: for(temp=value;temp>0;temp/=10)
  4727  0216  087A               	movf	(itoaa@value+1),w
  4728  0217  1283               	bcf	status, 5	;RP0=0, select bank0
  4729  0218  1303               	bcf	status, 6	;RP1=0, select bank0
  4730  0219  01A3               	clrf	(itoaa@temp+1)
  4731  021A  07A3               	addwf	(itoaa@temp+1)
  4732  021B  0879               	movf	(itoaa@value),w
  4733  021C  01A2               	clrf	(itoaa@temp)
  4734  021D  07A2               	addwf	(itoaa@temp)
  4735                           
  4736                           	
  4737  021E                     l2740:	
  4738  021E  0823               	movf	(itoaa@temp+1),w
  4739  021F  3A80               	xorlw	80h
  4740  0220  00FF               	movwf	btemp+1
  4741  0221  3080               	movlw	(high(01h))^80h
  4742  0222  027F               	subwf	btemp+1,w
  4743  0223  1D03               	skipz
  4744  0224  2A27               	goto	u3565
  4745  0225  3001               	movlw	low(01h)
  4746  0226  0222               	subwf	(itoaa@temp),w
  4747  0227                     u3565:
  4748                           
  4749  0227  1803               	skipnc
  4750  0228  2A2A               	goto	u3561
  4751  0229  2A2B               	goto	u3560
  4752  022A                     u3561:
  4753  022A  2A2D               	goto	l2744
  4754  022B                     u3560:
  4755  022B  2A75               	goto	l748
  4756                           	
  4757  022C                     l2742:	
  4758  022C  2A75               	goto	l748
  4759                           	line	316
  4760                           	
  4761  022D                     l753:	
  4762                           	line	317
  4763                           	
  4764  022D                     l2744:	
  4765                           ;lcd1.c: 316: {
  4766                           ;lcd1.c: 317: *--ptr=temp%10+'0';
  4767  022D  300A               	movlw	low(0Ah)
  4768  022E  00F0               	movwf	(?___awmod)
  4769  022F  3000               	movlw	high(0Ah)
  4770  0230  00F1               	movwf	((?___awmod))+1
  4771  0231  1283               	bcf	status, 5	;RP0=0, select bank0
  4772  0232  1303               	bcf	status, 6	;RP1=0, select bank0
  4773  0233  0823               	movf	(itoaa@temp+1),w
  4774  0234  01F3               	clrf	1+(?___awmod)+02h
  4775  0235  07F3               	addwf	1+(?___awmod)+02h
  4776  0236  0822               	movf	(itoaa@temp),w
  4777  0237  01F2               	clrf	0+(?___awmod)+02h
  4778  0238  07F2               	addwf	0+(?___awmod)+02h
  4779                           
  4780  0239  120A  158A  2658   	fcall	___awmod
              120A  118A         
  4781  023E  0870               	movf	(0+(?___awmod)),w
  4782  023F  3E30               	addlw	030h
  4783  0240  00FC               	movwf	(??_itoaa+0)+0
  4784  0241  3001               	movlw	low(01h)
  4785  0242  02FB               	subwf	(itoaa@ptr),f
  4786  0243  087B               	movf	((itoaa@ptr)),w
  4787  0244  0084               	movwf	fsr0
  4788  0245  087C               	movf	(??_itoaa+0)+0,w
  4789  0246  1383               	bcf	status, 7	;select IRP bank0
  4790  0247  0080               	movwf	indf
  4791                           	line	318
  4792                           	
  4793  0248                     l2746:	
  4794                           ;lcd1.c: 318: count++;
  4795  0248  3001               	movlw	low(01h)
  4796  0249  1283               	bcf	status, 5	;RP0=0, select bank0
  4797  024A  1303               	bcf	status, 6	;RP1=0, select bank0
  4798  024B  07A0               	addwf	(itoaa@count),f
  4799  024C  1803               	skipnc
  4800  024D  0AA1               	incf	(itoaa@count+1),f
  4801  024E  3000               	movlw	high(01h)
  4802  024F  07A1               	addwf	(itoaa@count+1),f
  4803                           	line	315
  4804                           	
  4805  0250                     l2748:	
  4806  0250  300A               	movlw	low(0Ah)
  4807  0251  00F0               	movwf	(?___awdiv)
  4808  0252  3000               	movlw	high(0Ah)
  4809  0253  00F1               	movwf	((?___awdiv))+1
  4810  0254  0823               	movf	(itoaa@temp+1),w
  4811  0255  01F3               	clrf	1+(?___awdiv)+02h
  4812  0256  07F3               	addwf	1+(?___awdiv)+02h
  4813  0257  0822               	movf	(itoaa@temp),w
  4814  0258  01F2               	clrf	0+(?___awdiv)+02h
  4815  0259  07F2               	addwf	0+(?___awdiv)+02h
  4816                           
  4817  025A  120A  158A  26BE   	fcall	___awdiv
              120A  118A         
  4818  025F  0871               	movf	(1+(?___awdiv)),w
  4819  0260  1283               	bcf	status, 5	;RP0=0, select bank0
  4820  0261  1303               	bcf	status, 6	;RP1=0, select bank0
  4821  0262  01A3               	clrf	(itoaa@temp+1)
  4822  0263  07A3               	addwf	(itoaa@temp+1)
  4823  0264  0870               	movf	(0+(?___awdiv)),w
  4824  0265  01A2               	clrf	(itoaa@temp)
  4825  0266  07A2               	addwf	(itoaa@temp)
  4826                           
  4827                           	
  4828  0267                     l2750:	
  4829  0267  0823               	movf	(itoaa@temp+1),w
  4830  0268  3A80               	xorlw	80h
  4831  0269  00FF               	movwf	btemp+1
  4832  026A  3080               	movlw	(high(01h))^80h
  4833  026B  027F               	subwf	btemp+1,w
  4834  026C  1D03               	skipz
  4835  026D  2A70               	goto	u3575
  4836  026E  3001               	movlw	low(01h)
  4837  026F  0222               	subwf	(itoaa@temp),w
  4838  0270                     u3575:
  4839                           
  4840  0270  1803               	skipnc
  4841  0271  2A73               	goto	u3571
  4842  0272  2A74               	goto	u3570
  4843  0273                     u3571:
  4844  0273  2A2D               	goto	l2744
  4845  0274                     u3570:
  4846  0274  2A75               	goto	l748
  4847                           	
  4848  0275                     l754:	
  4849                           	line	321
  4850                           ;lcd1.c: 319: }
  4851                           ;lcd1.c: 320: return count;
  4852                           ;	Return value of _itoaa is never used
  4853                           	
  4854  0275                     l748:	
  4855  0275  0008               	return
  4856                           	opt stack 0
  4857                           GLOBAL	__end_of_itoaa
  4858  0276                     	__end_of_itoaa:
  4859 ;; =============== function _itoaa ends ============
  4860                           
  4861                           	signat	_itoaa,8314
  4862                           	global	___awmod
  4863                           psect	text450,local,class=CODE,delta=2
  4864                           global __ptext450
  4865  0E58                     __ptext450:
  4866                           
  4867 ;; *************** function ___awmod *****************
  4868 ;; Defined at:
  4869 ;;		line 5 in file "C:\Program Files (x86)\HI-TECH Software\PICC\9.81\sources\awmod.c"
  4870 ;; Parameters:    Size  Location     Type
  4871 ;;  divisor         2    0[COMMON] int 
  4872 ;;  dividend        2    2[COMMON] int 
  4873 ;; Auto vars:     Size  Location     Type
  4874 ;;  sign            1    6[COMMON] unsigned char 
  4875 ;;  counter         1    5[COMMON] unsigned char 
  4876 ;; Return value:  Size  Location     Type
  4877 ;;                  2    0[COMMON] int 
  4878 ;; Registers used:
  4879 ;;		wreg, status,2, status,0
  4880 ;; Tracked objects:
  4881 ;;		On entry : 0/0
  4882 ;;		On exit  : 0/0
  4883 ;;		Unchanged: 0/0
  4884 ;; Data sizes:     COMMON   BANK0   BANK1   BANK3   BANK2
  4885 ;;      Params:         4       0       0       0       0
  4886 ;;      Locals:         2       0       0       0       0
  4887 ;;      Temps:          1       0       0       0       0
  4888 ;;      Totals:         7       0       0       0       0
  4889 ;;Total ram usage:        7 bytes
  4890 ;; Hardware stack levels used:    1
  4891 ;; This function calls:
  4892 ;;		Nothing
  4893 ;; This function is called by:
  4894 ;;		_itoaa
  4895 ;; This function uses a non-reentrant model
  4896 ;;
  4897                           psect	text450
  4898                           	file	"C:\Program Files (x86)\HI-TECH Software\PICC\9.81\sources\awmod.c"
  4899                           	line	5
  4900                           	global	__size_of___awmod
  4901  0066                     	__size_of___awmod	equ	__end_of___awmod-___awmod
  4902                           	
  4903  0E58                     ___awmod:	
  4904                           	opt	stack 5
  4905                           ; Regs used in ___awmod: [wreg+status,2+status,0]
  4906                           	line	8
  4907                           	
  4908  0E58                     l2670:	
  4909  0E58  01F6               	clrf	(___awmod@sign)
  4910                           	line	9
  4911  0E59  1FF3               	btfss	(___awmod@dividend+1),7
  4912  0E5A  2E5C               	goto	u3421
  4913  0E5B  2E5D               	goto	u3420
  4914  0E5C                     u3421:
  4915  0E5C  2E66               	goto	l2674
  4916  0E5D                     u3420:
  4917                           	line	10
  4918                           	
  4919  0E5D                     l2672:	
  4920  0E5D  09F2               	comf	(___awmod@dividend),f
  4921  0E5E  09F3               	comf	(___awmod@dividend+1),f
  4922  0E5F  0AF2               	incf	(___awmod@dividend),f
  4923  0E60  1903               	skipnz
  4924  0E61  0AF3               	incf	(___awmod@dividend+1),f
  4925                           	line	11
  4926  0E62  01F6               	clrf	(___awmod@sign)
  4927  0E63  1403               	bsf	status,0
  4928  0E64  0DF6               	rlf	(___awmod@sign),f
  4929  0E65  2E66               	goto	l2674
  4930                           	line	12
  4931                           	
  4932  0E66                     l1076:	
  4933                           	line	13
  4934                           	
  4935  0E66                     l2674:	
  4936  0E66  1FF1               	btfss	(___awmod@divisor+1),7
  4937  0E67  2E69               	goto	u3431
  4938  0E68  2E6A               	goto	u3430
  4939  0E69                     u3431:
  4940  0E69  2E70               	goto	l2678
  4941  0E6A                     u3430:
  4942                           	line	14
  4943                           	
  4944  0E6A                     l2676:	
  4945  0E6A  09F0               	comf	(___awmod@divisor),f
  4946  0E6B  09F1               	comf	(___awmod@divisor+1),f
  4947  0E6C  0AF0               	incf	(___awmod@divisor),f
  4948  0E6D  1903               	skipnz
  4949  0E6E  0AF1               	incf	(___awmod@divisor+1),f
  4950  0E6F  2E70               	goto	l2678
  4951                           	
  4952  0E70                     l1077:	
  4953                           	line	15
  4954                           	
  4955  0E70                     l2678:	
  4956  0E70  0871               	movf	(___awmod@divisor+1),w
  4957  0E71  0470               	iorwf	(___awmod@divisor),w
  4958  0E72  1903               	skipnz
  4959  0E73  2E75               	goto	u3441
  4960  0E74  2E76               	goto	u3440
  4961  0E75                     u3441:
  4962  0E75  2EAC               	goto	l2696
  4963  0E76                     u3440:
  4964                           	line	16
  4965                           	
  4966  0E76                     l2680:	
  4967  0E76  01F5               	clrf	(___awmod@counter)
  4968  0E77  1403               	bsf	status,0
  4969  0E78  0DF5               	rlf	(___awmod@counter),f
  4970                           	line	17
  4971  0E79  2E86               	goto	l2686
  4972                           	
  4973  0E7A                     l1080:	
  4974                           	line	18
  4975                           	
  4976  0E7A                     l2682:	
  4977  0E7A  3001               	movlw	01h
  4978                           	
  4979  0E7B                     u3455:
  4980  0E7B  1003               	clrc
  4981  0E7C  0DF0               	rlf	(___awmod@divisor),f
  4982  0E7D  0DF1               	rlf	(___awmod@divisor+1),f
  4983  0E7E  3EFF               	addlw	-1
  4984  0E7F  1D03               	skipz
  4985  0E80  2E7B               	goto	u3455
  4986                           	line	19
  4987                           	
  4988  0E81                     l2684:	
  4989  0E81  3001               	movlw	(01h)
  4990  0E82  00F4               	movwf	(??___awmod+0)+0
  4991  0E83  0874               	movf	(??___awmod+0)+0,w
  4992  0E84  07F5               	addwf	(___awmod@counter),f
  4993  0E85  2E86               	goto	l2686
  4994                           	line	20
  4995                           	
  4996  0E86                     l1079:	
  4997                           	line	17
  4998                           	
  4999  0E86                     l2686:	
  5000  0E86  1FF1               	btfss	(___awmod@divisor+1),(15)&7
  5001  0E87  2E89               	goto	u3461
  5002  0E88  2E8A               	goto	u3460
  5003  0E89                     u3461:
  5004  0E89  2E7A               	goto	l2682
  5005  0E8A                     u3460:
  5006  0E8A  2E8C               	goto	l2688
  5007                           	
  5008  0E8B                     l1081:	
  5009  0E8B  2E8C               	goto	l2688
  5010                           	line	21
  5011                           	
  5012  0E8C                     l1082:	
  5013                           	line	22
  5014                           	
  5015  0E8C                     l2688:	
  5016  0E8C  0871               	movf	(___awmod@divisor+1),w
  5017  0E8D  0273               	subwf	(___awmod@dividend+1),w
  5018  0E8E  1D03               	skipz
  5019  0E8F  2E92               	goto	u3475
  5020  0E90  0870               	movf	(___awmod@divisor),w
  5021  0E91  0272               	subwf	(___awmod@dividend),w
  5022  0E92                     u3475:
  5023  0E92  1C03               	skipc
  5024  0E93  2E95               	goto	u3471
  5025  0E94  2E96               	goto	u3470
  5026  0E95                     u3471:
  5027  0E95  2E9D               	goto	l2692
  5028  0E96                     u3470:
  5029                           	line	23
  5030                           	
  5031  0E96                     l2690:	
  5032  0E96  0870               	movf	(___awmod@divisor),w
  5033  0E97  02F2               	subwf	(___awmod@dividend),f
  5034  0E98  0871               	movf	(___awmod@divisor+1),w
  5035  0E99  1C03               	skipc
  5036  0E9A  03F3               	decf	(___awmod@dividend+1),f
  5037  0E9B  02F3               	subwf	(___awmod@dividend+1),f
  5038  0E9C  2E9D               	goto	l2692
  5039                           	
  5040  0E9D                     l1083:	
  5041                           	line	24
  5042                           	
  5043  0E9D                     l2692:	
  5044  0E9D  3001               	movlw	01h
  5045                           	
  5046  0E9E                     u3485:
  5047  0E9E  1003               	clrc
  5048  0E9F  0CF1               	rrf	(___awmod@divisor+1),f
  5049  0EA0  0CF0               	rrf	(___awmod@divisor),f
  5050  0EA1  3EFF               	addlw	-1
  5051  0EA2  1D03               	skipz
  5052  0EA3  2E9E               	goto	u3485
  5053                           	line	25
  5054                           	
  5055  0EA4                     l2694:	
  5056  0EA4  3001               	movlw	low(01h)
  5057  0EA5  02F5               	subwf	(___awmod@counter),f
  5058  0EA6  1D03               	btfss	status,2
  5059  0EA7  2EA9               	goto	u3491
  5060  0EA8  2EAA               	goto	u3490
  5061  0EA9                     u3491:
  5062  0EA9  2E8C               	goto	l2688
  5063  0EAA                     u3490:
  5064  0EAA  2EAC               	goto	l2696
  5065                           	
  5066  0EAB                     l1084:	
  5067  0EAB  2EAC               	goto	l2696
  5068                           	line	26
  5069                           	
  5070  0EAC                     l1078:	
  5071                           	line	27
  5072                           	
  5073  0EAC                     l2696:	
  5074  0EAC  0876               	movf	(___awmod@sign),w
  5075  0EAD  1D03               	skipz
  5076  0EAE  2EB0               	goto	u3500
  5077  0EAF  2EB6               	goto	l2700
  5078  0EB0                     u3500:
  5079                           	line	28
  5080                           	
  5081  0EB0                     l2698:	
  5082  0EB0  09F2               	comf	(___awmod@dividend),f
  5083  0EB1  09F3               	comf	(___awmod@dividend+1),f
  5084  0EB2  0AF2               	incf	(___awmod@dividend),f
  5085  0EB3  1903               	skipnz
  5086  0EB4  0AF3               	incf	(___awmod@dividend+1),f
  5087  0EB5  2EB6               	goto	l2700
  5088                           	
  5089  0EB6                     l1085:	
  5090                           	line	29
  5091                           	
  5092  0EB6                     l2700:	
  5093  0EB6  0873               	movf	(___awmod@dividend+1),w
  5094  0EB7  01F1               	clrf	(?___awmod+1)
  5095  0EB8  07F1               	addwf	(?___awmod+1)
  5096  0EB9  0872               	movf	(___awmod@dividend),w
  5097  0EBA  01F0               	clrf	(?___awmod)
  5098  0EBB  07F0               	addwf	(?___awmod)
  5099                           
  5100  0EBC  2EBD               	goto	l1086
  5101                           	
  5102  0EBD                     l2702:	
  5103                           	line	30
  5104                           	
  5105  0EBD                     l1086:	
  5106  0EBD  0008               	return
  5107                           	opt stack 0
  5108                           GLOBAL	__end_of___awmod
  5109  0EBE                     	__end_of___awmod:
  5110 ;; =============== function ___awmod ends ============
  5111                           
  5112                           	signat	___awmod,8314
  5113                           	global	___awdiv
  5114                           psect	text451,local,class=CODE,delta=2
  5115                           global __ptext451
  5116  0EBE                     __ptext451:
  5117                           
  5118 ;; *************** function ___awdiv *****************
  5119 ;; Defined at:
  5120 ;;		line 5 in file "C:\Program Files (x86)\HI-TECH Software\PICC\9.81\sources\awdiv.c"
  5121 ;; Parameters:    Size  Location     Type
  5122 ;;  divisor         2    0[COMMON] int 
  5123 ;;  dividend        2    2[COMMON] int 
  5124 ;; Auto vars:     Size  Location     Type
  5125 ;;  quotient        2    7[COMMON] int 
  5126 ;;  sign            1    6[COMMON] unsigned char 
  5127 ;;  counter         1    5[COMMON] unsigned char 
  5128 ;; Return value:  Size  Location     Type
  5129 ;;                  2    0[COMMON] int 
  5130 ;; Registers used:
  5131 ;;		wreg, status,2, status,0
  5132 ;; Tracked objects:
  5133 ;;		On entry : 0/0
  5134 ;;		On exit  : 0/0
  5135 ;;		Unchanged: 0/0
  5136 ;; Data sizes:     COMMON   BANK0   BANK1   BANK3   BANK2
  5137 ;;      Params:         4       0       0       0       0
  5138 ;;      Locals:         4       0       0       0       0
  5139 ;;      Temps:          1       0       0       0       0
  5140 ;;      Totals:         9       0       0       0       0
  5141 ;;Total ram usage:        9 bytes
  5142 ;; Hardware stack levels used:    1
  5143 ;; This function calls:
  5144 ;;		Nothing
  5145 ;; This function is called by:
  5146 ;;		_itoaa
  5147 ;; This function uses a non-reentrant model
  5148 ;;
  5149                           psect	text451
  5150                           	file	"C:\Program Files (x86)\HI-TECH Software\PICC\9.81\sources\awdiv.c"
  5151                           	line	5
  5152                           	global	__size_of___awdiv
  5153  0074                     	__size_of___awdiv	equ	__end_of___awdiv-___awdiv
  5154                           	
  5155  0EBE                     ___awdiv:	
  5156                           	opt	stack 5
  5157                           ; Regs used in ___awdiv: [wreg+status,2+status,0]
  5158                           	line	9
  5159                           	
  5160  0EBE                     l2630:	
  5161  0EBE  01F6               	clrf	(___awdiv@sign)
  5162                           	line	10
  5163  0EBF  1FF1               	btfss	(___awdiv@divisor+1),7
  5164  0EC0  2EC2               	goto	u3321
  5165  0EC1  2EC3               	goto	u3320
  5166  0EC2                     u3321:
  5167  0EC2  2ECC               	goto	l2634
  5168  0EC3                     u3320:
  5169                           	line	11
  5170                           	
  5171  0EC3                     l2632:	
  5172  0EC3  09F0               	comf	(___awdiv@divisor),f
  5173  0EC4  09F1               	comf	(___awdiv@divisor+1),f
  5174  0EC5  0AF0               	incf	(___awdiv@divisor),f
  5175  0EC6  1903               	skipnz
  5176  0EC7  0AF1               	incf	(___awdiv@divisor+1),f
  5177                           	line	12
  5178  0EC8  01F6               	clrf	(___awdiv@sign)
  5179  0EC9  1403               	bsf	status,0
  5180  0ECA  0DF6               	rlf	(___awdiv@sign),f
  5181  0ECB  2ECC               	goto	l2634
  5182                           	line	13
  5183                           	
  5184  0ECC                     l1008:	
  5185                           	line	14
  5186                           	
  5187  0ECC                     l2634:	
  5188  0ECC  1FF3               	btfss	(___awdiv@dividend+1),7
  5189  0ECD  2ECF               	goto	u3331
  5190  0ECE  2ED0               	goto	u3330
  5191  0ECF                     u3331:
  5192  0ECF  2EDA               	goto	l2640
  5193  0ED0                     u3330:
  5194                           	line	15
  5195                           	
  5196  0ED0                     l2636:	
  5197  0ED0  09F2               	comf	(___awdiv@dividend),f
  5198  0ED1  09F3               	comf	(___awdiv@dividend+1),f
  5199  0ED2  0AF2               	incf	(___awdiv@dividend),f
  5200  0ED3  1903               	skipnz
  5201  0ED4  0AF3               	incf	(___awdiv@dividend+1),f
  5202                           	line	16
  5203                           	
  5204  0ED5                     l2638:	
  5205  0ED5  3001               	movlw	(01h)
  5206  0ED6  00F4               	movwf	(??___awdiv+0)+0
  5207  0ED7  0874               	movf	(??___awdiv+0)+0,w
  5208  0ED8  06F6               	xorwf	(___awdiv@sign),f
  5209  0ED9  2EDA               	goto	l2640
  5210                           	line	17
  5211                           	
  5212  0EDA                     l1009:	
  5213                           	line	18
  5214                           	
  5215  0EDA                     l2640:	
  5216  0EDA  01F7               	clrf	(___awdiv@quotient)
  5217  0EDB  01F8               	clrf	(___awdiv@quotient+1)
  5218                           	line	19
  5219                           	
  5220  0EDC                     l2642:	
  5221  0EDC  0871               	movf	(___awdiv@divisor+1),w
  5222  0EDD  0470               	iorwf	(___awdiv@divisor),w
  5223  0EDE  1903               	skipnz
  5224  0EDF  2EE1               	goto	u3341
  5225  0EE0  2EE2               	goto	u3340
  5226  0EE1                     u3341:
  5227  0EE1  2F20               	goto	l2662
  5228  0EE2                     u3340:
  5229                           	line	20
  5230                           	
  5231  0EE2                     l2644:	
  5232  0EE2  01F5               	clrf	(___awdiv@counter)
  5233  0EE3  1403               	bsf	status,0
  5234  0EE4  0DF5               	rlf	(___awdiv@counter),f
  5235                           	line	21
  5236  0EE5  2EF2               	goto	l2650
  5237                           	
  5238  0EE6                     l1012:	
  5239                           	line	22
  5240                           	
  5241  0EE6                     l2646:	
  5242  0EE6  3001               	movlw	01h
  5243                           	
  5244  0EE7                     u3355:
  5245  0EE7  1003               	clrc
  5246  0EE8  0DF0               	rlf	(___awdiv@divisor),f
  5247  0EE9  0DF1               	rlf	(___awdiv@divisor+1),f
  5248  0EEA  3EFF               	addlw	-1
  5249  0EEB  1D03               	skipz
  5250  0EEC  2EE7               	goto	u3355
  5251                           	line	23
  5252                           	
  5253  0EED                     l2648:	
  5254  0EED  3001               	movlw	(01h)
  5255  0EEE  00F4               	movwf	(??___awdiv+0)+0
  5256  0EEF  0874               	movf	(??___awdiv+0)+0,w
  5257  0EF0  07F5               	addwf	(___awdiv@counter),f
  5258  0EF1  2EF2               	goto	l2650
  5259                           	line	24
  5260                           	
  5261  0EF2                     l1011:	
  5262                           	line	21
  5263                           	
  5264  0EF2                     l2650:	
  5265  0EF2  1FF1               	btfss	(___awdiv@divisor+1),(15)&7
  5266  0EF3  2EF5               	goto	u3361
  5267  0EF4  2EF6               	goto	u3360
  5268  0EF5                     u3361:
  5269  0EF5  2EE6               	goto	l2646
  5270  0EF6                     u3360:
  5271  0EF6  2EF8               	goto	l2652
  5272                           	
  5273  0EF7                     l1013:	
  5274  0EF7  2EF8               	goto	l2652
  5275                           	line	25
  5276                           	
  5277  0EF8                     l1014:	
  5278                           	line	26
  5279                           	
  5280  0EF8                     l2652:	
  5281  0EF8  3001               	movlw	01h
  5282                           	
  5283  0EF9                     u3375:
  5284  0EF9  1003               	clrc
  5285  0EFA  0DF7               	rlf	(___awdiv@quotient),f
  5286  0EFB  0DF8               	rlf	(___awdiv@quotient+1),f
  5287  0EFC  3EFF               	addlw	-1
  5288  0EFD  1D03               	skipz
  5289  0EFE  2EF9               	goto	u3375
  5290                           	line	27
  5291  0EFF  0871               	movf	(___awdiv@divisor+1),w
  5292  0F00  0273               	subwf	(___awdiv@dividend+1),w
  5293  0F01  1D03               	skipz
  5294  0F02  2F05               	goto	u3385
  5295  0F03  0870               	movf	(___awdiv@divisor),w
  5296  0F04  0272               	subwf	(___awdiv@dividend),w
  5297  0F05                     u3385:
  5298  0F05  1C03               	skipc
  5299  0F06  2F08               	goto	u3381
  5300  0F07  2F09               	goto	u3380
  5301  0F08                     u3381:
  5302  0F08  2F11               	goto	l2658
  5303  0F09                     u3380:
  5304                           	line	28
  5305                           	
  5306  0F09                     l2654:	
  5307  0F09  0870               	movf	(___awdiv@divisor),w
  5308  0F0A  02F2               	subwf	(___awdiv@dividend),f
  5309  0F0B  0871               	movf	(___awdiv@divisor+1),w
  5310  0F0C  1C03               	skipc
  5311  0F0D  03F3               	decf	(___awdiv@dividend+1),f
  5312  0F0E  02F3               	subwf	(___awdiv@dividend+1),f
  5313                           	line	29
  5314                           	
  5315  0F0F                     l2656:	
  5316  0F0F  1477               	bsf	(___awdiv@quotient)+(0/8),(0)&7
  5317  0F10  2F11               	goto	l2658
  5318                           	line	30
  5319                           	
  5320  0F11                     l1015:	
  5321                           	line	31
  5322                           	
  5323  0F11                     l2658:	
  5324  0F11  3001               	movlw	01h
  5325                           	
  5326  0F12                     u3395:
  5327  0F12  1003               	clrc
  5328  0F13  0CF1               	rrf	(___awdiv@divisor+1),f
  5329  0F14  0CF0               	rrf	(___awdiv@divisor),f
  5330  0F15  3EFF               	addlw	-1
  5331  0F16  1D03               	skipz
  5332  0F17  2F12               	goto	u3395
  5333                           	line	32
  5334                           	
  5335  0F18                     l2660:	
  5336  0F18  3001               	movlw	low(01h)
  5337  0F19  02F5               	subwf	(___awdiv@counter),f
  5338  0F1A  1D03               	btfss	status,2
  5339  0F1B  2F1D               	goto	u3401
  5340  0F1C  2F1E               	goto	u3400
  5341  0F1D                     u3401:
  5342  0F1D  2EF8               	goto	l2652
  5343  0F1E                     u3400:
  5344  0F1E  2F20               	goto	l2662
  5345                           	
  5346  0F1F                     l1016:	
  5347  0F1F  2F20               	goto	l2662
  5348                           	line	33
  5349                           	
  5350  0F20                     l1010:	
  5351                           	line	34
  5352                           	
  5353  0F20                     l2662:	
  5354  0F20  0876               	movf	(___awdiv@sign),w
  5355  0F21  1D03               	skipz
  5356  0F22  2F24               	goto	u3410
  5357  0F23  2F2A               	goto	l2666
  5358  0F24                     u3410:
  5359                           	line	35
  5360                           	
  5361  0F24                     l2664:	
  5362  0F24  09F7               	comf	(___awdiv@quotient),f
  5363  0F25  09F8               	comf	(___awdiv@quotient+1),f
  5364  0F26  0AF7               	incf	(___awdiv@quotient),f
  5365  0F27  1903               	skipnz
  5366  0F28  0AF8               	incf	(___awdiv@quotient+1),f
  5367  0F29  2F2A               	goto	l2666
  5368                           	
  5369  0F2A                     l1017:	
  5370                           	line	36
  5371                           	
  5372  0F2A                     l2666:	
  5373  0F2A  0878               	movf	(___awdiv@quotient+1),w
  5374  0F2B  01F1               	clrf	(?___awdiv+1)
  5375  0F2C  07F1               	addwf	(?___awdiv+1)
  5376  0F2D  0877               	movf	(___awdiv@quotient),w
  5377  0F2E  01F0               	clrf	(?___awdiv)
  5378  0F2F  07F0               	addwf	(?___awdiv)
  5379                           
  5380  0F30  2F31               	goto	l1018
  5381                           	
  5382  0F31                     l2668:	
  5383                           	line	37
  5384                           	
  5385  0F31                     l1018:	
  5386  0F31  0008               	return
  5387                           	opt stack 0
  5388                           GLOBAL	__end_of___awdiv
  5389  0F32                     	__end_of___awdiv:
  5390 ;; =============== function ___awdiv ends ============
  5391                           
  5392                           	signat	___awdiv,8314
  5393                           	global	___wmul
  5394                           psect	text452,local,class=CODE,delta=2
  5395                           global __ptext452
  5396  0D59                     __ptext452:
  5397                           
  5398 ;; *************** function ___wmul *****************
  5399 ;; Defined at:
  5400 ;;		line 3 in file "C:\Program Files (x86)\HI-TECH Software\PICC\9.81\sources\wmul.c"
  5401 ;; Parameters:    Size  Location     Type
  5402 ;;  multiplier      2    0[COMMON] unsigned int 
  5403 ;;  multiplicand    2    2[COMMON] unsigned int 
  5404 ;; Auto vars:     Size  Location     Type
  5405 ;;  product         2    4[COMMON] unsigned int 
  5406 ;; Return value:  Size  Location     Type
  5407 ;;                  2    0[COMMON] unsigned int 
  5408 ;; Registers used:
  5409 ;;		wreg, status,2, status,0
  5410 ;; Tracked objects:
  5411 ;;		On entry : 0/0
  5412 ;;		On exit  : 0/0
  5413 ;;		Unchanged: 0/0
  5414 ;; Data sizes:     COMMON   BANK0   BANK1   BANK3   BANK2
  5415 ;;      Params:         4       0       0       0       0
  5416 ;;      Locals:         2       0       0       0       0
  5417 ;;      Temps:          0       0       0       0       0
  5418 ;;      Totals:         6       0       0       0       0
  5419 ;;Total ram usage:        6 bytes
  5420 ;; Hardware stack levels used:    1
  5421 ;; This function calls:
  5422 ;;		Nothing
  5423 ;; This function is called by:
  5424 ;;		_itoaa
  5425 ;; This function uses a non-reentrant model
  5426 ;;
  5427                           psect	text452
  5428                           	file	"C:\Program Files (x86)\HI-TECH Software\PICC\9.81\sources\wmul.c"
  5429                           	line	3
  5430                           	global	__size_of___wmul
  5431  002A                     	__size_of___wmul	equ	__end_of___wmul-___wmul
  5432                           	
  5433  0D59                     ___wmul:	
  5434                           	opt	stack 5
  5435                           ; Regs used in ___wmul: [wreg+status,2+status,0]
  5436                           	line	4
  5437                           	
  5438  0D59                     l2618:	
  5439  0D59  01F4               	clrf	(___wmul@product)
  5440  0D5A  01F5               	clrf	(___wmul@product+1)
  5441  0D5B  2D5C               	goto	l2620
  5442                           	line	6
  5443                           	
  5444  0D5C                     l868:	
  5445                           	line	7
  5446                           	
  5447  0D5C                     l2620:	
  5448  0D5C  1C70               	btfss	(___wmul@multiplier),(0)&7
  5449  0D5D  2D5F               	goto	u3281
  5450  0D5E  2D60               	goto	u3280
  5451  0D5F                     u3281:
  5452  0D5F  2D66               	goto	l869
  5453  0D60                     u3280:
  5454                           	line	8
  5455                           	
  5456  0D60                     l2622:	
  5457  0D60  0872               	movf	(___wmul@multiplicand),w
  5458  0D61  07F4               	addwf	(___wmul@product),f
  5459  0D62  1803               	skipnc
  5460  0D63  0AF5               	incf	(___wmul@product+1),f
  5461  0D64  0873               	movf	(___wmul@multiplicand+1),w
  5462  0D65  07F5               	addwf	(___wmul@product+1),f
  5463                           	
  5464  0D66                     l869:	
  5465                           	line	9
  5466  0D66  3001               	movlw	01h
  5467                           	
  5468  0D67                     u3295:
  5469  0D67  1003               	clrc
  5470  0D68  0DF2               	rlf	(___wmul@multiplicand),f
  5471  0D69  0DF3               	rlf	(___wmul@multiplicand+1),f
  5472  0D6A  3EFF               	addlw	-1
  5473  0D6B  1D03               	skipz
  5474  0D6C  2D67               	goto	u3295
  5475                           	line	10
  5476                           	
  5477  0D6D                     l2624:	
  5478  0D6D  3001               	movlw	01h
  5479                           	
  5480  0D6E                     u3305:
  5481  0D6E  1003               	clrc
  5482  0D6F  0CF1               	rrf	(___wmul@multiplier+1),f
  5483  0D70  0CF0               	rrf	(___wmul@multiplier),f
  5484  0D71  3EFF               	addlw	-1
  5485  0D72  1D03               	skipz
  5486  0D73  2D6E               	goto	u3305
  5487                           	line	11
  5488  0D74  0871               	movf	((___wmul@multiplier+1)),w
  5489  0D75  0470               	iorwf	((___wmul@multiplier)),w
  5490  0D76  1D03               	skipz
  5491  0D77  2D79               	goto	u3311
  5492  0D78  2D7A               	goto	u3310
  5493  0D79                     u3311:
  5494  0D79  2D5C               	goto	l2620
  5495  0D7A                     u3310:
  5496  0D7A  2D7B               	goto	l2626
  5497                           	
  5498  0D7B                     l870:	
  5499                           	line	12
  5500                           	
  5501  0D7B                     l2626:	
  5502  0D7B  0875               	movf	(___wmul@product+1),w
  5503  0D7C  01F1               	clrf	(?___wmul+1)
  5504  0D7D  07F1               	addwf	(?___wmul+1)
  5505  0D7E  0874               	movf	(___wmul@product),w
  5506  0D7F  01F0               	clrf	(?___wmul)
  5507  0D80  07F0               	addwf	(?___wmul)
  5508                           
  5509  0D81  2D82               	goto	l871
  5510                           	
  5511  0D82                     l2628:	
  5512                           	line	13
  5513                           	
  5514  0D82                     l871:	
  5515  0D82  0008               	return
  5516                           	opt stack 0
  5517                           GLOBAL	__end_of___wmul
  5518  0D83                     	__end_of___wmul:
  5519 ;; =============== function ___wmul ends ============
  5520                           
  5521                           	signat	___wmul,8314
  5522                           	global	_resetout
  5523                           psect	text453,local,class=CODE,delta=2
  5524                           global __ptext453
  5525  0C45                     __ptext453:
  5526                           
  5527 ;; *************** function _resetout *****************
  5528 ;; Defined at:
  5529 ;;		line 536 in file "C:\PIC\PROJECTS\Training_Project\Code\LCD\lcd1.c"
  5530 ;; Parameters:    Size  Location     Type
  5531 ;;		None
  5532 ;; Auto vars:     Size  Location     Type
  5533 ;;		None
  5534 ;; Return value:  Size  Location     Type
  5535 ;;		None               void
  5536 ;; Registers used:
  5537 ;;		None
  5538 ;; Tracked objects:
  5539 ;;		On entry : 0/0
  5540 ;;		On exit  : 0/0
  5541 ;;		Unchanged: 0/0
  5542 ;; Data sizes:     COMMON   BANK0   BANK1   BANK3   BANK2
  5543 ;;      Params:         0       0       0       0       0
  5544 ;;      Locals:         0       0       0       0       0
  5545 ;;      Temps:          0       0       0       0       0
  5546 ;;      Totals:         0       0       0       0       0
  5547 ;;Total ram usage:        0 bytes
  5548 ;; Hardware stack levels used:    1
  5549 ;; This function calls:
  5550 ;;		Nothing
  5551 ;; This function is called by:
  5552 ;;		_actrow
  5553 ;; This function uses a non-reentrant model
  5554 ;;
  5555                           psect	text453
  5556                           	file	"C:\PIC\PROJECTS\Training_Project\Code\LCD\lcd1.c"
  5557                           	line	536
  5558                           	global	__size_of_resetout
  5559  0007                     	__size_of_resetout	equ	__end_of_resetout-_resetout
  5560                           	
  5561  0C45                     _resetout:	
  5562                           	opt	stack 4
  5563                           ; Regs used in _resetout: []
  5564                           	line	537
  5565                           	
  5566  0C45                     l2616:	
  5567                           ;lcd1.c: 537: RC2=0;RC3=0;RB6=0;RB7=0;
  5568  0C45  1283               	bcf	status, 5	;RP0=0, select bank0
  5569  0C46  1303               	bcf	status, 6	;RP1=0, select bank0
  5570  0C47  1107               	bcf	(58/8),(58)&7
  5571  0C48  1187               	bcf	(59/8),(59)&7
  5572  0C49  1306               	bcf	(54/8),(54)&7
  5573  0C4A  1386               	bcf	(55/8),(55)&7
  5574                           	line	538
  5575                           	
  5576  0C4B                     l834:	
  5577  0C4B  0008               	return
  5578                           	opt stack 0
  5579                           GLOBAL	__end_of_resetout
  5580  0C4C                     	__end_of_resetout:
  5581 ;; =============== function _resetout ends ============
  5582                           
  5583                           	signat	_resetout,88
  5584                           	global	_setLCD
  5585                           psect	text454,local,class=CODE,delta=2
  5586                           global __ptext454
  5587  0276                     __ptext454:
  5588                           
  5589 ;; *************** function _setLCD *****************
  5590 ;; Defined at:
  5591 ;;		line 376 in file "C:\PIC\PROJECTS\Training_Project\Code\LCD\lcd1.c"
  5592 ;; Parameters:    Size  Location     Type
  5593 ;;  number          2    0[COMMON] int 
  5594 ;; Auto vars:     Size  Location     Type
  5595 ;;  vbool          32    0[BANK0 ] int [16]
  5596 ;;  i               2   32[BANK0 ] int 
  5597 ;; Return value:  Size  Location     Type
  5598 ;;		None               void
  5599 ;; Registers used:
  5600 ;;		wreg, fsr0l, fsr0h, status,2, status,0, btemp+1, pclath
  5601 ;; Tracked objects:
  5602 ;;		On entry : 0/0
  5603 ;;		On exit  : 0/0
  5604 ;;		Unchanged: 0/0
  5605 ;; Data sizes:     COMMON   BANK0   BANK1   BANK3   BANK2
  5606 ;;      Params:         2       0       0       0       0
  5607 ;;      Locals:         0      34       0       0       0
  5608 ;;      Temps:          6       0       0       0       0
  5609 ;;      Totals:         8      34       0       0       0
  5610 ;;Total ram usage:       42 bytes
  5611 ;; Hardware stack levels used:    2
  5612 ;; This function calls:
  5613 ;;		Nothing
  5614 ;; This function is called by:
  5615 ;;		_cmd
  5616 ;;		_dat
  5617 ;; This function uses a non-reentrant model
  5618 ;;
  5619                           psect	text454
  5620                           	file	"C:\PIC\PROJECTS\Training_Project\Code\LCD\lcd1.c"
  5621                           	line	376
  5622                           	global	__size_of_setLCD
  5623  0144                     	__size_of_setLCD	equ	__end_of_setLCD-_setLCD
  5624                           	
  5625  0276                     _setLCD:	
  5626                           	opt	stack 3
  5627                           ; Regs used in _setLCD: [wreg-fsr0h+status,2+status,0+btemp+1+pclath]
  5628                           	line	381
  5629                           	
  5630  0276                     l2602:	
  5631                           ;lcd1.c: 377: const int size=8*sizeof(int);
  5632                           ;lcd1.c: 378: int vbool[8*sizeof(int)];
  5633                           ;lcd1.c: 379: int i;;
  5634                           ;lcd1.c: 381: for (i = 0; i <size; i++)
  5635  0276  1283               	bcf	status, 5	;RP0=0, select bank0
  5636  0277  1303               	bcf	status, 6	;RP1=0, select bank0
  5637  0278  01C0               	clrf	(setLCD@i)
  5638  0279  01C1               	clrf	(setLCD@i+1)
  5639                           	
  5640  027A                     l2604:	
  5641  027A  3001               	movlw	(setLCD@size-__stringbase)
  5642  027B  0084               	movwf	fsr0
  5643  027C  120A  118A  200D   	fcall	stringdir
              120A  118A         
  5644  0281  00F2               	movwf	(??_setLCD+0)+0
  5645  0282  120A  118A  200D   	fcall	stringdir
              120A  118A         
  5646  0287  00F3               	movwf	(??_setLCD+0)+0+1
  5647  0288  0841               	movf	(setLCD@i+1),w
  5648  0289  3A80               	xorlw	80h
  5649  028A  00F4               	movwf	(??_setLCD+2)+0
  5650  028B  0873               	movf	1+(??_setLCD+0)+0,w
  5651  028C  3A80               	xorlw	80h
  5652  028D  0274               	subwf	(??_setLCD+2)+0,w
  5653  028E  1D03               	skipz
  5654  028F  2A92               	goto	u3095
  5655  0290  0872               	movf	0+(??_setLCD+0)+0,w
  5656  0291  0240               	subwf	(setLCD@i),w
  5657  0292                     u3095:
  5658                           
  5659  0292  1C03               	skipc
  5660  0293  2A95               	goto	u3091
  5661  0294  2A96               	goto	u3090
  5662  0295                     u3091:
  5663  0295  2A98               	goto	l2608
  5664  0296                     u3090:
  5665  0296  2AD9               	goto	l2614
  5666                           	
  5667  0297                     l2606:	
  5668  0297  2AD9               	goto	l2614
  5669                           	line	382
  5670                           	
  5671  0298                     l771:	
  5672                           	line	383
  5673                           	
  5674  0298                     l2608:	
  5675                           ;lcd1.c: 382: {
  5676                           ;lcd1.c: 383: vbool[i] = number<<i < 0;
  5677  0298  1283               	bcf	status, 5	;RP0=0, select bank0
  5678  0299  1303               	bcf	status, 6	;RP1=0, select bank0
  5679  029A  0A40               	incf	(setLCD@i),w
  5680  029B  00F2               	movwf	(??_setLCD+0)+0
  5681  029C  0871               	movf	(setLCD@number+1),w
  5682  029D  00F4               	movwf	(??_setLCD+1)+0+1
  5683  029E  0870               	movf	(setLCD@number),w
  5684  029F  00F3               	movwf	(??_setLCD+1)+0
  5685  02A0  2AA4               	goto	u3104
  5686  02A1                     u3105:
  5687  02A1  1003               	clrc
  5688  02A2  0DF3               	rlf	(??_setLCD+1)+0,f
  5689  02A3  0DF4               	rlf	(??_setLCD+1)+1,f
  5690  02A4                     u3104:
  5691  02A4  0BF2               	decfsz	(??_setLCD+0)+0,f
  5692  02A5  2AA1               	goto	u3105
  5693  02A6  3000               	movlw	0
  5694  02A7  1BF4               	btfsc	1+(??_setLCD+1)+0,7
  5695  02A8  3001               	movlw	1
  5696  02A9  00F5               	movwf	(??_setLCD+3)+0
  5697  02AA  01F6               	clrf	(??_setLCD+3)+0+1
  5698  02AB  0840               	movf	(setLCD@i),w
  5699  02AC  00F7               	movwf	(??_setLCD+5)+0
  5700  02AD  0777               	addwf	(??_setLCD+5)+0,w
  5701  02AE  3E20               	addlw	setLCD@vbool&0ffh
  5702  02AF  0084               	movwf	fsr0
  5703  02B0  0875               	movf	0+(??_setLCD+3)+0,w
  5704  02B1  1383               	bcf	status, 7	;select IRP bank0
  5705  02B2  0080               	movwf	indf
  5706  02B3  0A84               	incf	fsr0,f
  5707  02B4  0876               	movf	1+(??_setLCD+3)+0,w
  5708  02B5  0080               	movwf	indf
  5709                           	line	381
  5710                           	
  5711  02B6                     l2610:	
  5712  02B6  3001               	movlw	low(01h)
  5713  02B7  07C0               	addwf	(setLCD@i),f
  5714  02B8  1803               	skipnc
  5715  02B9  0AC1               	incf	(setLCD@i+1),f
  5716  02BA  3000               	movlw	high(01h)
  5717  02BB  07C1               	addwf	(setLCD@i+1),f
  5718                           	
  5719  02BC                     l2612:	
  5720  02BC  3001               	movlw	(setLCD@size-__stringbase)
  5721  02BD  0084               	movwf	fsr0
  5722  02BE  120A  118A  200D   	fcall	stringdir
              120A  118A         
  5723  02C3  00F2               	movwf	(??_setLCD+0)+0
  5724  02C4  120A  118A  200D   	fcall	stringdir
              120A  118A         
  5725  02C9  00F3               	movwf	(??_setLCD+0)+0+1
  5726  02CA  0841               	movf	(setLCD@i+1),w
  5727  02CB  3A80               	xorlw	80h
  5728  02CC  00F4               	movwf	(??_setLCD+2)+0
  5729  02CD  0873               	movf	1+(??_setLCD+0)+0,w
  5730  02CE  3A80               	xorlw	80h
  5731  02CF  0274               	subwf	(??_setLCD+2)+0,w
  5732  02D0  1D03               	skipz
  5733  02D1  2AD4               	goto	u3115
  5734  02D2  0872               	movf	0+(??_setLCD+0)+0,w
  5735  02D3  0240               	subwf	(setLCD@i),w
  5736  02D4                     u3115:
  5737                           
  5738  02D4  1C03               	skipc
  5739  02D5  2AD7               	goto	u3111
  5740  02D6  2AD8               	goto	u3110
  5741  02D7                     u3111:
  5742  02D7  2A98               	goto	l2608
  5743  02D8                     u3110:
  5744  02D8  2AD9               	goto	l2614
  5745                           	
  5746  02D9                     l772:	
  5747                           	line	386
  5748                           	
  5749  02D9                     l2614:	
  5750                           ;lcd1.c: 384: }
  5751                           ;lcd1.c: 386: RD0=vbool[size-1];
  5752  02D9  3001               	movlw	(setLCD@size-__stringbase)
  5753  02DA  0084               	movwf	fsr0
  5754  02DB  120A  118A  200D   	fcall	stringdir
              120A  118A         
  5755  02E0  00F2               	movwf	(??_setLCD+0)+0
  5756  02E1  0772               	addwf	(??_setLCD+0)+0,w
  5757  02E2  3EFE               	addlw	0FEh
  5758  02E3  3E20               	addlw	setLCD@vbool&0ffh
  5759  02E4  0084               	movwf	fsr0
  5760  02E5  1383               	bcf	status, 7	;select IRP bank0
  5761  02E6  0800               	movf	indf,w
  5762  02E7  00F3               	movwf	(??_setLCD+1)+0+0
  5763  02E8  0A84               	incf	fsr0,f
  5764  02E9  0800               	movf	indf,w
  5765  02EA  00F4               	movwf	(??_setLCD+1)+0+1
  5766  02EB  1873               	btfsc	0+(??_setLCD+1)+0,0
  5767  02EC  2AEE               	goto	u3121
  5768  02ED  2AF2               	goto	u3120
  5769                           	
  5770  02EE                     u3121:
  5771  02EE  1283               	bcf	status, 5	;RP0=0, select bank0
  5772  02EF  1303               	bcf	status, 6	;RP1=0, select bank0
  5773  02F0  1408               	bsf	(64/8),(64)&7
  5774  02F1  2AF5               	goto	u3134
  5775  02F2                     u3120:
  5776  02F2  1283               	bcf	status, 5	;RP0=0, select bank0
  5777  02F3  1303               	bcf	status, 6	;RP1=0, select bank0
  5778  02F4  1008               	bcf	(64/8),(64)&7
  5779  02F5                     u3134:
  5780                           	line	387
  5781                           ;lcd1.c: 387: RD1=vbool[size-2];
  5782  02F5  3001               	movlw	(setLCD@size-__stringbase)
  5783  02F6  0084               	movwf	fsr0
  5784  02F7  120A  118A  200D   	fcall	stringdir
              120A  118A         
  5785  02FC  00F2               	movwf	(??_setLCD+0)+0
  5786  02FD  0772               	addwf	(??_setLCD+0)+0,w
  5787  02FE  3EFC               	addlw	0FCh
  5788  02FF  3E20               	addlw	setLCD@vbool&0ffh
  5789  0300  0084               	movwf	fsr0
  5790  0301  1383               	bcf	status, 7	;select IRP bank0
  5791  0302  0800               	movf	indf,w
  5792  0303  00F3               	movwf	(??_setLCD+1)+0+0
  5793  0304  0A84               	incf	fsr0,f
  5794  0305  0800               	movf	indf,w
  5795  0306  00F4               	movwf	(??_setLCD+1)+0+1
  5796  0307  1873               	btfsc	0+(??_setLCD+1)+0,0
  5797  0308  2B0A               	goto	u3141
  5798  0309  2B0E               	goto	u3140
  5799                           	
  5800  030A                     u3141:
  5801  030A  1283               	bcf	status, 5	;RP0=0, select bank0
  5802  030B  1303               	bcf	status, 6	;RP1=0, select bank0
  5803  030C  1488               	bsf	(65/8),(65)&7
  5804  030D  2B11               	goto	u3154
  5805  030E                     u3140:
  5806  030E  1283               	bcf	status, 5	;RP0=0, select bank0
  5807  030F  1303               	bcf	status, 6	;RP1=0, select bank0
  5808  0310  1088               	bcf	(65/8),(65)&7
  5809  0311                     u3154:
  5810                           	line	388
  5811                           ;lcd1.c: 388: RD2=vbool[size-3];
  5812  0311  3001               	movlw	(setLCD@size-__stringbase)
  5813  0312  0084               	movwf	fsr0
  5814  0313  120A  118A  200D   	fcall	stringdir
              120A  118A         
  5815  0318  00F2               	movwf	(??_setLCD+0)+0
  5816  0319  0772               	addwf	(??_setLCD+0)+0,w
  5817  031A  3EFA               	addlw	0FAh
  5818  031B  3E20               	addlw	setLCD@vbool&0ffh
  5819  031C  0084               	movwf	fsr0
  5820  031D  1383               	bcf	status, 7	;select IRP bank0
  5821  031E  0800               	movf	indf,w
  5822  031F  00F3               	movwf	(??_setLCD+1)+0+0
  5823  0320  0A84               	incf	fsr0,f
  5824  0321  0800               	movf	indf,w
  5825  0322  00F4               	movwf	(??_setLCD+1)+0+1
  5826  0323  1873               	btfsc	0+(??_setLCD+1)+0,0
  5827  0324  2B26               	goto	u3161
  5828  0325  2B2A               	goto	u3160
  5829                           	
  5830  0326                     u3161:
  5831  0326  1283               	bcf	status, 5	;RP0=0, select bank0
  5832  0327  1303               	bcf	status, 6	;RP1=0, select bank0
  5833  0328  1508               	bsf	(66/8),(66)&7
  5834  0329  2B2D               	goto	u3174
  5835  032A                     u3160:
  5836  032A  1283               	bcf	status, 5	;RP0=0, select bank0
  5837  032B  1303               	bcf	status, 6	;RP1=0, select bank0
  5838  032C  1108               	bcf	(66/8),(66)&7
  5839  032D                     u3174:
  5840                           	line	389
  5841                           ;lcd1.c: 389: RD3=vbool[size-4];
  5842  032D  3001               	movlw	(setLCD@size-__stringbase)
  5843  032E  0084               	movwf	fsr0
  5844  032F  120A  118A  200D   	fcall	stringdir
              120A  118A         
  5845  0334  00F2               	movwf	(??_setLCD+0)+0
  5846  0335  0772               	addwf	(??_setLCD+0)+0,w
  5847  0336  3EF8               	addlw	0F8h
  5848  0337  3E20               	addlw	setLCD@vbool&0ffh
  5849  0338  0084               	movwf	fsr0
  5850  0339  1383               	bcf	status, 7	;select IRP bank0
  5851  033A  0800               	movf	indf,w
  5852  033B  00F3               	movwf	(??_setLCD+1)+0+0
  5853  033C  0A84               	incf	fsr0,f
  5854  033D  0800               	movf	indf,w
  5855  033E  00F4               	movwf	(??_setLCD+1)+0+1
  5856  033F  1873               	btfsc	0+(??_setLCD+1)+0,0
  5857  0340  2B42               	goto	u3181
  5858  0341  2B46               	goto	u3180
  5859                           	
  5860  0342                     u3181:
  5861  0342  1283               	bcf	status, 5	;RP0=0, select bank0
  5862  0343  1303               	bcf	status, 6	;RP1=0, select bank0
  5863  0344  1588               	bsf	(67/8),(67)&7
  5864  0345  2B49               	goto	u3194
  5865  0346                     u3180:
  5866  0346  1283               	bcf	status, 5	;RP0=0, select bank0
  5867  0347  1303               	bcf	status, 6	;RP1=0, select bank0
  5868  0348  1188               	bcf	(67/8),(67)&7
  5869  0349                     u3194:
  5870                           	line	390
  5871                           ;lcd1.c: 390: RD4=vbool[size-5];
  5872  0349  3001               	movlw	(setLCD@size-__stringbase)
  5873  034A  0084               	movwf	fsr0
  5874  034B  120A  118A  200D   	fcall	stringdir
              120A  118A         
  5875  0350  00F2               	movwf	(??_setLCD+0)+0
  5876  0351  0772               	addwf	(??_setLCD+0)+0,w
  5877  0352  3EF6               	addlw	0F6h
  5878  0353  3E20               	addlw	setLCD@vbool&0ffh
  5879  0354  0084               	movwf	fsr0
  5880  0355  1383               	bcf	status, 7	;select IRP bank0
  5881  0356  0800               	movf	indf,w
  5882  0357  00F3               	movwf	(??_setLCD+1)+0+0
  5883  0358  0A84               	incf	fsr0,f
  5884  0359  0800               	movf	indf,w
  5885  035A  00F4               	movwf	(??_setLCD+1)+0+1
  5886  035B  1873               	btfsc	0+(??_setLCD+1)+0,0
  5887  035C  2B5E               	goto	u3201
  5888  035D  2B62               	goto	u3200
  5889                           	
  5890  035E                     u3201:
  5891  035E  1283               	bcf	status, 5	;RP0=0, select bank0
  5892  035F  1303               	bcf	status, 6	;RP1=0, select bank0
  5893  0360  1608               	bsf	(68/8),(68)&7
  5894  0361  2B65               	goto	u3214
  5895  0362                     u3200:
  5896  0362  1283               	bcf	status, 5	;RP0=0, select bank0
  5897  0363  1303               	bcf	status, 6	;RP1=0, select bank0
  5898  0364  1208               	bcf	(68/8),(68)&7
  5899  0365                     u3214:
  5900                           	line	391
  5901                           ;lcd1.c: 391: RD5=vbool[size-6];
  5902  0365  3001               	movlw	(setLCD@size-__stringbase)
  5903  0366  0084               	movwf	fsr0
  5904  0367  120A  118A  200D   	fcall	stringdir
              120A  118A         
  5905  036C  00F2               	movwf	(??_setLCD+0)+0
  5906  036D  0772               	addwf	(??_setLCD+0)+0,w
  5907  036E  3EF4               	addlw	0F4h
  5908  036F  3E20               	addlw	setLCD@vbool&0ffh
  5909  0370  0084               	movwf	fsr0
  5910  0371  1383               	bcf	status, 7	;select IRP bank0
  5911  0372  0800               	movf	indf,w
  5912  0373  00F3               	movwf	(??_setLCD+1)+0+0
  5913  0374  0A84               	incf	fsr0,f
  5914  0375  0800               	movf	indf,w
  5915  0376  00F4               	movwf	(??_setLCD+1)+0+1
  5916  0377  1873               	btfsc	0+(??_setLCD+1)+0,0
  5917  0378  2B7A               	goto	u3221
  5918  0379  2B7E               	goto	u3220
  5919                           	
  5920  037A                     u3221:
  5921  037A  1283               	bcf	status, 5	;RP0=0, select bank0
  5922  037B  1303               	bcf	status, 6	;RP1=0, select bank0
  5923  037C  1688               	bsf	(69/8),(69)&7
  5924  037D  2B81               	goto	u3234
  5925  037E                     u3220:
  5926  037E  1283               	bcf	status, 5	;RP0=0, select bank0
  5927  037F  1303               	bcf	status, 6	;RP1=0, select bank0
  5928  0380  1288               	bcf	(69/8),(69)&7
  5929  0381                     u3234:
  5930                           	line	392
  5931                           ;lcd1.c: 392: RD6=vbool[size-7];
  5932  0381  3001               	movlw	(setLCD@size-__stringbase)
  5933  0382  0084               	movwf	fsr0
  5934  0383  120A  118A  200D   	fcall	stringdir
              120A  118A         
  5935  0388  00F2               	movwf	(??_setLCD+0)+0
  5936  0389  0772               	addwf	(??_setLCD+0)+0,w
  5937  038A  3EF2               	addlw	0F2h
  5938  038B  3E20               	addlw	setLCD@vbool&0ffh
  5939  038C  0084               	movwf	fsr0
  5940  038D  1383               	bcf	status, 7	;select IRP bank0
  5941  038E  0800               	movf	indf,w
  5942  038F  00F3               	movwf	(??_setLCD+1)+0+0
  5943  0390  0A84               	incf	fsr0,f
  5944  0391  0800               	movf	indf,w
  5945  0392  00F4               	movwf	(??_setLCD+1)+0+1
  5946  0393  1873               	btfsc	0+(??_setLCD+1)+0,0
  5947  0394  2B96               	goto	u3241
  5948  0395  2B9A               	goto	u3240
  5949                           	
  5950  0396                     u3241:
  5951  0396  1283               	bcf	status, 5	;RP0=0, select bank0
  5952  0397  1303               	bcf	status, 6	;RP1=0, select bank0
  5953  0398  1708               	bsf	(70/8),(70)&7
  5954  0399  2B9D               	goto	u3254
  5955  039A                     u3240:
  5956  039A  1283               	bcf	status, 5	;RP0=0, select bank0
  5957  039B  1303               	bcf	status, 6	;RP1=0, select bank0
  5958  039C  1308               	bcf	(70/8),(70)&7
  5959  039D                     u3254:
  5960                           	line	393
  5961                           ;lcd1.c: 393: RD7=vbool[size-8];
  5962  039D  3001               	movlw	(setLCD@size-__stringbase)
  5963  039E  0084               	movwf	fsr0
  5964  039F  120A  118A  200D   	fcall	stringdir
              120A  118A         
  5965  03A4  00F2               	movwf	(??_setLCD+0)+0
  5966  03A5  0772               	addwf	(??_setLCD+0)+0,w
  5967  03A6  3EF0               	addlw	0F0h
  5968  03A7  3E20               	addlw	setLCD@vbool&0ffh
  5969  03A8  0084               	movwf	fsr0
  5970  03A9  1383               	bcf	status, 7	;select IRP bank0
  5971  03AA  0800               	movf	indf,w
  5972  03AB  00F3               	movwf	(??_setLCD+1)+0+0
  5973  03AC  0A84               	incf	fsr0,f
  5974  03AD  0800               	movf	indf,w
  5975  03AE  00F4               	movwf	(??_setLCD+1)+0+1
  5976  03AF  1873               	btfsc	0+(??_setLCD+1)+0,0
  5977  03B0  2BB2               	goto	u3261
  5978  03B1  2BB6               	goto	u3260
  5979                           	
  5980  03B2                     u3261:
  5981  03B2  1283               	bcf	status, 5	;RP0=0, select bank0
  5982  03B3  1303               	bcf	status, 6	;RP1=0, select bank0
  5983  03B4  1788               	bsf	(71/8),(71)&7
  5984  03B5  2BB9               	goto	u3274
  5985  03B6                     u3260:
  5986  03B6  1283               	bcf	status, 5	;RP0=0, select bank0
  5987  03B7  1303               	bcf	status, 6	;RP1=0, select bank0
  5988  03B8  1388               	bcf	(71/8),(71)&7
  5989  03B9                     u3274:
  5990                           	line	397
  5991                           	
  5992  03B9                     l773:	
  5993  03B9  0008               	return
  5994                           	opt stack 0
  5995                           GLOBAL	__end_of_setLCD
  5996  03BA                     	__end_of_setLCD:
  5997 ;; =============== function _setLCD ends ============
  5998                           
  5999                           	signat	_setLCD,4216
  6000                           	global	_delay
  6001                           psect	text455,local,class=CODE,delta=2
  6002                           global __ptext455
  6003  0C75                     __ptext455:
  6004                           
  6005 ;; *************** function _delay *****************
  6006 ;; Defined at:
  6007 ;;		line 291 in file "C:\PIC\PROJECTS\Training_Project\Code\LCD\lcd1.c"
  6008 ;; Parameters:    Size  Location     Type
  6009 ;;  x               2    0[COMMON] unsigned int 
  6010 ;; Auto vars:     Size  Location     Type
  6011 ;;		None
  6012 ;; Return value:  Size  Location     Type
  6013 ;;		None               void
  6014 ;; Registers used:
  6015 ;;		wreg
  6016 ;; Tracked objects:
  6017 ;;		On entry : 0/0
  6018 ;;		On exit  : 0/0
  6019 ;;		Unchanged: 0/0
  6020 ;; Data sizes:     COMMON   BANK0   BANK1   BANK3   BANK2
  6021 ;;      Params:         2       0       0       0       0
  6022 ;;      Locals:         0       0       0       0       0
  6023 ;;      Temps:          0       0       0       0       0
  6024 ;;      Totals:         2       0       0       0       0
  6025 ;;Total ram usage:        2 bytes
  6026 ;; Hardware stack levels used:    1
  6027 ;; This function calls:
  6028 ;;		Nothing
  6029 ;; This function is called by:
  6030 ;;		_cmd
  6031 ;;		_dat
  6032 ;;		_scroll
  6033 ;;		_actrow
  6034 ;; This function uses a non-reentrant model
  6035 ;;
  6036                           psect	text455
  6037                           	file	"C:\PIC\PROJECTS\Training_Project\Code\LCD\lcd1.c"
  6038                           	line	291
  6039                           	global	__size_of_delay
  6040  0014                     	__size_of_delay	equ	__end_of_delay-_delay
  6041                           	
  6042  0C75                     _delay:	
  6043                           	opt	stack 4
  6044                           ; Regs used in _delay: [wreg]
  6045                           	line	292
  6046                           	
  6047  0C75                     l2598:	
  6048                           ;lcd1.c: 292: while(x-->0);
  6049  0C75  2C77               	goto	l2600
  6050                           	
  6051  0C76                     l742:	
  6052  0C76  2C77               	goto	l2600
  6053                           	
  6054  0C77                     l741:	
  6055                           	
  6056  0C77                     l2600:	
  6057  0C77  3001               	movlw	low(01h)
  6058  0C78  02F0               	subwf	(delay@x),f
  6059  0C79  3000               	movlw	high(01h)
  6060  0C7A  1C03               	skipc
  6061  0C7B  03F1               	decf	(delay@x+1),f
  6062  0C7C  02F1               	subwf	(delay@x+1),f
  6063  0C7D  30FF               	movlw	high(0FFFFh)
  6064  0C7E  0671               	xorwf	((delay@x+1)),w
  6065  0C7F  1D03               	skipz
  6066  0C80  2C83               	goto	u3085
  6067  0C81  30FF               	movlw	low(0FFFFh)
  6068  0C82  0670               	xorwf	((delay@x)),w
  6069  0C83                     u3085:
  6070                           
  6071  0C83  1D03               	skipz
  6072  0C84  2C86               	goto	u3081
  6073  0C85  2C87               	goto	u3080
  6074  0C86                     u3081:
  6075  0C86  2C77               	goto	l2600
  6076  0C87                     u3080:
  6077  0C87  2C88               	goto	l744
  6078                           	
  6079  0C88                     l743:	
  6080                           	line	293
  6081                           	
  6082  0C88                     l744:	
  6083  0C88  0008               	return
  6084                           	opt stack 0
  6085                           GLOBAL	__end_of_delay
  6086  0C89                     	__end_of_delay:
  6087 ;; =============== function _delay ends ============
  6088                           
  6089                           	signat	_delay,4216
  6090                           	global	_strcat
  6091                           psect	text456,local,class=CODE,delta=2
  6092                           global __ptext456
  6093  0D30                     __ptext456:
  6094                           
  6095 ;; *************** function _strcat *****************
  6096 ;; Defined at:
  6097 ;;		line 10 in file "../../common/strcat.c"
  6098 ;; Parameters:    Size  Location     Type
  6099 ;;  to              1    wreg     PTR unsigned char 
  6100 ;;		 -> getlogicseq@logic_d4(5), getlogicseq@logic_d3(5), getlogicseq@logic_d2(5), getlogicseq@logic_d1(5), 
  6101 ;;  from            1    0[COMMON] PTR const unsigned char 
  6102 ;;		 -> getlogicseq@snum(16), 
  6103 ;; Auto vars:     Size  Location     Type
  6104 ;;  to              1    2[COMMON] PTR unsigned char 
  6105 ;;		 -> getlogicseq@logic_d4(5), getlogicseq@logic_d3(5), getlogicseq@logic_d2(5), getlogicseq@logic_d1(5), 
  6106 ;;  cp              1    3[COMMON] PTR unsigned char 
  6107 ;;		 -> getlogicseq@logic_d4(5), getlogicseq@logic_d3(5), getlogicseq@logic_d2(5), getlogicseq@logic_d1(5), 
  6108 ;; Return value:  Size  Location     Type
  6109 ;;                  1    wreg      PTR unsigned char 
  6110 ;; Registers used:
  6111 ;;		wreg, fsr0l, fsr0h, status,2, status,0
  6112 ;; Tracked objects:
  6113 ;;		On entry : 0/0
  6114 ;;		On exit  : 0/0
  6115 ;;		Unchanged: 0/0
  6116 ;; Data sizes:     COMMON   BANK0   BANK1   BANK3   BANK2
  6117 ;;      Params:         1       0       0       0       0
  6118 ;;      Locals:         2       0       0       0       0
  6119 ;;      Temps:          1       0       0       0       0
  6120 ;;      Totals:         4       0       0       0       0
  6121 ;;Total ram usage:        4 bytes
  6122 ;; Hardware stack levels used:    1
  6123 ;; This function calls:
  6124 ;;		Nothing
  6125 ;; This function is called by:
  6126 ;;		_getlogicseq
  6127 ;; This function uses a non-reentrant model
  6128 ;;
  6129                           psect	text456
  6130                           	file	"C:\Program Files (x86)\HI-TECH Software\PICC\9.81\sources\strcat.c"
  6131                           	line	10
  6132                           	global	__size_of_strcat
  6133  0029                     	__size_of_strcat	equ	__end_of_strcat-_strcat
  6134                           	
  6135  0D30                     _strcat:	
  6136                           	opt	stack 6
  6137                           ; Regs used in _strcat: [wreg-fsr0h+status,2+status,0]
  6138                           ;strcat@to stored from wreg
  6139                           	line	18
  6140  0D30  00F2               	movwf	(strcat@to)
  6141                           	
  6142  0D31                     l2590:	
  6143  0D31  0872               	movf	(strcat@to),w
  6144  0D32  00F1               	movwf	(??_strcat+0)+0
  6145  0D33  0871               	movf	(??_strcat+0)+0,w
  6146  0D34  00F3               	movwf	(strcat@cp)
  6147                           	line	19
  6148  0D35  2D3B               	goto	l2594
  6149                           	
  6150  0D36                     l848:	
  6151                           	line	20
  6152                           	
  6153  0D36                     l2592:	
  6154  0D36  3001               	movlw	(01h)
  6155  0D37  00F1               	movwf	(??_strcat+0)+0
  6156  0D38  0871               	movf	(??_strcat+0)+0,w
  6157  0D39  07F3               	addwf	(strcat@cp),f
  6158  0D3A  2D3B               	goto	l2594
  6159                           	
  6160  0D3B                     l847:	
  6161                           	line	19
  6162                           	
  6163  0D3B                     l2594:	
  6164  0D3B  0873               	movf	(strcat@cp),w
  6165  0D3C  0084               	movwf	fsr0
  6166  0D3D  1383               	bcf	status, 7	;select IRP bank0
  6167  0D3E  0880               	movf	indf,f
  6168  0D3F  1D03               	skipz
  6169  0D40  2D42               	goto	u3061
  6170  0D41  2D43               	goto	u3060
  6171  0D42                     u3061:
  6172  0D42  2D36               	goto	l2592
  6173  0D43                     u3060:
  6174  0D43  2D46               	goto	l2596
  6175                           	
  6176  0D44                     l849:	
  6177                           	line	21
  6178  0D44  2D46               	goto	l2596
  6179                           	
  6180  0D45                     l851:	
  6181                           	line	22
  6182  0D45  2D46               	goto	l2596
  6183                           	
  6184  0D46                     l850:	
  6185                           	line	21
  6186                           	
  6187  0D46                     l2596:	
  6188  0D46  0870               	movf	(strcat@from),w
  6189  0D47  0084               	movwf	fsr0
  6190  0D48  3001               	movlw	01h
  6191  0D49  07F0               	addwf	(strcat@from),f
  6192  0D4A  0800               	movf	indf,w
  6193  0D4B  00F1               	movwf	(??_strcat+0)+0
  6194  0D4C  0873               	movf	(strcat@cp),w
  6195  0D4D  0084               	movwf	fsr0
  6196  0D4E  3001               	movlw	01h
  6197  0D4F  07F3               	addwf	(strcat@cp),f
  6198  0D50  0871               	movf	(??_strcat+0)+0,w
  6199  0D51  0080               	movwf	indf
  6200  0D52  0880               	movf	(indf),f
  6201  0D53  1D03               	skipz
  6202  0D54  2D56               	goto	u3071
  6203  0D55  2D57               	goto	u3070
  6204  0D56                     u3071:
  6205  0D56  2D46               	goto	l2596
  6206  0D57                     u3070:
  6207  0D57  2D58               	goto	l853
  6208                           	
  6209  0D58                     l852:	
  6210                           	line	24
  6211                           ;	Return value of _strcat is never used
  6212                           	
  6213  0D58                     l853:	
  6214  0D58  0008               	return
  6215                           	opt stack 0
  6216                           GLOBAL	__end_of_strcat
  6217  0D59                     	__end_of_strcat:
  6218 ;; =============== function _strcat ends ============
  6219                           
  6220                           	signat	_strcat,8313
  6221                           	global	_strcpy
  6222                           psect	text457,local,class=CODE,delta=2
  6223                           global __ptext457
  6224  0C9E                     __ptext457:
  6225                           
  6226 ;; *************** function _strcpy *****************
  6227 ;; Defined at:
  6228 ;;		line 10 in file "C:\Program Files (x86)\HI-TECH Software\PICC\9.81\sources\strcpy.c"
  6229 ;; Parameters:    Size  Location     Type
  6230 ;;  to              1    wreg     PTR unsigned char 
  6231 ;;		 -> getlogicseq@str(32), getlogicseq@logic_d4(5), getlogicseq@logic_d3(5), getlogicseq@logic_d2(5), 
  6232 ;;		 -> getlogicseq@logic_d1(5), 
  6233 ;;  from            1    0[COMMON] PTR const unsigned char 
  6234 ;;		 -> STR_12(1), STR_11(20), STR_9(1), STR_8(20), 
  6235 ;;		 -> STR_6(1), STR_5(20), STR_3(1), STR_2(20), 
  6236 ;; Auto vars:     Size  Location     Type
  6237 ;;  to              1    2[COMMON] PTR unsigned char 
  6238 ;;		 -> getlogicseq@str(32), getlogicseq@logic_d4(5), getlogicseq@logic_d3(5), getlogicseq@logic_d2(5), 
  6239 ;;		 -> getlogicseq@logic_d1(5), 
  6240 ;;  cp              1    3[COMMON] PTR unsigned char 
  6241 ;;		 -> getlogicseq@str(32), getlogicseq@logic_d4(5), getlogicseq@logic_d3(5), getlogicseq@logic_d2(5), 
  6242 ;;		 -> getlogicseq@logic_d1(5), 
  6243 ;; Return value:  Size  Location     Type
  6244 ;;                  1    wreg      PTR unsigned char 
  6245 ;; Registers used:
  6246 ;;		wreg, fsr0l, fsr0h, status,2, status,0, pclath
  6247 ;; Tracked objects:
  6248 ;;		On entry : 0/0
  6249 ;;		On exit  : 0/0
  6250 ;;		Unchanged: 0/0
  6251 ;; Data sizes:     COMMON   BANK0   BANK1   BANK3   BANK2
  6252 ;;      Params:         1       0       0       0       0
  6253 ;;      Locals:         2       0       0       0       0
  6254 ;;      Temps:          1       0       0       0       0
  6255 ;;      Totals:         4       0       0       0       0
  6256 ;;Total ram usage:        4 bytes
  6257 ;; Hardware stack levels used:    2
  6258 ;; This function calls:
  6259 ;;		Nothing
  6260 ;; This function is called by:
  6261 ;;		_getlogicseq
  6262 ;; This function uses a non-reentrant model
  6263 ;;
  6264                           psect	text457
  6265                           	file	"C:\Program Files (x86)\HI-TECH Software\PICC\9.81\sources\strcpy.c"
  6266                           	line	10
  6267                           	global	__size_of_strcpy
  6268  0020                     	__size_of_strcpy	equ	__end_of_strcpy-_strcpy
  6269                           	
  6270  0C9E                     _strcpy:	
  6271                           	opt	stack 5
  6272                           ; Regs used in _strcpy: [wreg-fsr0h+status,2+status,0+pclath]
  6273                           ;strcpy@to stored from wreg
  6274                           	line	18
  6275  0C9E  00F2               	movwf	(strcpy@to)
  6276                           	
  6277  0C9F                     l2586:	
  6278  0C9F  0872               	movf	(strcpy@to),w
  6279  0CA0  00F1               	movwf	(??_strcpy+0)+0
  6280  0CA1  0871               	movf	(??_strcpy+0)+0,w
  6281  0CA2  00F3               	movwf	(strcpy@cp)
  6282                           	line	19
  6283  0CA3  2CA5               	goto	l2588
  6284                           	
  6285  0CA4                     l857:	
  6286                           	line	20
  6287  0CA4  2CA5               	goto	l2588
  6288                           	
  6289  0CA5                     l856:	
  6290                           	line	19
  6291                           	
  6292  0CA5                     l2588:	
  6293  0CA5  3001               	movlw	01h
  6294  0CA6  07F0               	addwf	(strcpy@from),f
  6295  0CA7  30FF               	movlw	-01h
  6296  0CA8  0770               	addwf	(strcpy@from),w
  6297  0CA9  0084               	movwf	fsr0
  6298  0CAA  120A  118A  200D   	fcall	stringdir
              120A  158A         
  6299  0CAF  00F1               	movwf	(??_strcpy+0)+0
  6300  0CB0  0873               	movf	(strcpy@cp),w
  6301  0CB1  0084               	movwf	fsr0
  6302  0CB2  3001               	movlw	01h
  6303  0CB3  07F3               	addwf	(strcpy@cp),f
  6304  0CB4  0871               	movf	(??_strcpy+0)+0,w
  6305  0CB5  1383               	bcf	status, 7	;select IRP bank0
  6306  0CB6  0080               	movwf	indf
  6307  0CB7  0880               	movf	(indf),f
  6308  0CB8  1D03               	skipz
  6309  0CB9  2CBB               	goto	u3051
  6310  0CBA  2CBC               	goto	u3050
  6311  0CBB                     u3051:
  6312  0CBB  2CA5               	goto	l2588
  6313  0CBC                     u3050:
  6314  0CBC  2CBD               	goto	l859
  6315                           	
  6316  0CBD                     l858:	
  6317                           	line	22
  6318                           ;	Return value of _strcpy is never used
  6319                           	
  6320  0CBD                     l859:	
  6321  0CBD  0008               	return
  6322                           	opt stack 0
  6323                           GLOBAL	__end_of_strcpy
  6324  0CBE                     	__end_of_strcpy:
  6325 ;; =============== function _strcpy ends ============
  6326                           
  6327                           	signat	_strcpy,8313
  6328                           	global	_initkeypad
  6329                           psect	text458,local,class=CODE,delta=2
  6330                           global __ptext458
  6331  0C4C                     __ptext458:
  6332                           
  6333 ;; *************** function _initkeypad *****************
  6334 ;; Defined at:
  6335 ;;		line 474 in file "C:\PIC\PROJECTS\Training_Project\Code\LCD\lcd1.c"
  6336 ;; Parameters:    Size  Location     Type
  6337 ;;		None
  6338 ;; Auto vars:     Size  Location     Type
  6339 ;;		None
  6340 ;; Return value:  Size  Location     Type
  6341 ;;		None               void
  6342 ;; Registers used:
  6343 ;;		wreg, status,2
  6344 ;; Tracked objects:
  6345 ;;		On entry : 0/0
  6346 ;;		On exit  : 0/0
  6347 ;;		Unchanged: 0/0
  6348 ;; Data sizes:     COMMON   BANK0   BANK1   BANK3   BANK2
  6349 ;;      Params:         0       0       0       0       0
  6350 ;;      Locals:         0       0       0       0       0
  6351 ;;      Temps:          0       0       0       0       0
  6352 ;;      Totals:         0       0       0       0       0
  6353 ;;Total ram usage:        0 bytes
  6354 ;; Hardware stack levels used:    1
  6355 ;; This function calls:
  6356 ;;		Nothing
  6357 ;; This function is called by:
  6358 ;;		_main
  6359 ;; This function uses a non-reentrant model
  6360 ;;
  6361                           psect	text458
  6362                           	file	"C:\PIC\PROJECTS\Training_Project\Code\LCD\lcd1.c"
  6363                           	line	474
  6364                           	global	__size_of_initkeypad
  6365  0008                     	__size_of_initkeypad	equ	__end_of_initkeypad-_initkeypad
  6366                           	
  6367  0C4C                     _initkeypad:	
  6368                           	opt	stack 7
  6369                           ; Regs used in _initkeypad: [wreg+status,2]
  6370                           	line	475
  6371                           	
  6372  0C4C                     l1288:	
  6373                           ;lcd1.c: 475: PORTB = 0;
  6374  0C4C  1283               	bcf	status, 5	;RP0=0, select bank0
  6375  0C4D  1303               	bcf	status, 6	;RP1=0, select bank0
  6376  0C4E  0186               	clrf	(6)	;volatile
  6377                           	line	476
  6378                           	
  6379  0C4F                     l1290:	
  6380                           ;lcd1.c: 476: TRISB = 0b11000000;
  6381  0C4F  30C0               	movlw	(0C0h)
  6382  0C50  1683               	bsf	status, 5	;RP0=1, select bank1
  6383  0C51  1303               	bcf	status, 6	;RP1=0, select bank1
  6384  0C52  0086               	movwf	(134)^080h	;volatile
  6385                           	line	478
  6386                           	
  6387  0C53                     l800:	
  6388  0C53  0008               	return
  6389                           	opt stack 0
  6390                           GLOBAL	__end_of_initkeypad
  6391  0C54                     	__end_of_initkeypad:
  6392 ;; =============== function _initkeypad ends ============
  6393                           
  6394                           	signat	_initkeypad,88
  6395                           psect	text459,local,class=CODE,delta=2
  6396                           global __ptext459
  6397  0000                     __ptext459:
  6398                           	global	btemp
  6399  007E                     	btemp set 07Eh
  6400                           
  6401                           	DABS	1,126,2	;btemp
  6402                           	global	wtemp0
  6403  007E                     	wtemp0 set btemp


HI-TECH Software PICC Macro Assembler V9.81 build 7503 
Symbol Table                                                                                   Thu Jul 27 11:24:00 2017

                   pc 0002          ___awdiv@sign 0076                    fsr 0004   ___wmul@multiplicand 0072  
                 l700 05E1                   l701 058F                   l710 064F                   l702 05E5  
                 l711 06D6                   l703 05F4                   l800 0C53                   l720 06FC  
                 l704 0616                   l721 0708                   l713 066A                   l705 0609  
                 l810 00D7                   l730 07CD                   l722 0707                   l714 06D5  
                 l706 0608                   l811 00F0                   l803 00B7                   l731 07DC  
                 l723 0709                   l715 0683                   l707 0614                   l820 0134  
                 l812 0113                   l804 018A                   l732 07FE                   l724 0743  
                 l716 06D9                   l708 0613                   l741 0C77                   l821 014B  
                 l813 00FB                   l805 00DA                   l733 07F1                   l725 07CA  
                 l717 06E8                   l709 0615                   l742 0C76                   l750 01D2  
                 l830 0183                   l822 013F                   l814 0112                   l806 00C2  
                 l734 07F0                   l718 070A                   l743 0C88                   l751 01E7  
                 l831 0182                   l823 014A                   l815 0106                   l807 00D9  
                 l735 07FC                   l727 075E                   l719 06FD                   l744 0C88  
                 l752 0212                   l840 0DE9                   l824 0149                   l816 0111  
                 l808 00CD                   l760 0C65                   l736 07FB                   l728 07C9  
                 l753 022D                   l841 0DDC                   l825 0162                   l817 0110  
                 l809 00D8                   l737 07FD                   l729 0777                   l681 042E  
                 l665 0C94                   l850 0D46                   l834 0C4B                   l754 0275  
                 l842 0DE8                   l826 0185                   l818 0129                   l738 07FF  
                 l690 0522                   l682 0467                   l666 0C9A                   l851 0D45  
                 l771 0298                   l747 0196                   l763 0CE2                   l843 0DE7  
                 l827 016D                   l819 014C                   l691 0515                   l683 04EE  
                 l667 0C9B                   l852 0D58                   l772 02D9                   l748 0275  
                 l844 0DF3                   l828 0184                   l780 0E23                   l692 0514  
                 l668 0C9B                   l853 0D58                   l773 03B9                   l749 01A5  
                 l837 0DC6                   l757 0DB5                   l829 0178                   l781 0E57  
                 l693 0520                   l685 0482                   l870 0D7B                   l766 0D07  
                 l838 0DEA                   l782 0E57                   l790 0FA0                   l694 051F  
                 l686 04ED                   l847 0D3B                   l871 0D82                   l839 0DD1  
                 l791 0F8D                   l695 0521                   l687 049B                   l856 0CA5  
                 l848 0D36                   l776 0E03                   l792 0FB6                   l696 055B  
                 l688 04F1                   l857 0CA4                   l849 0D44                   l777 0E16  
                 l793 0FCE                   l785 0F5C                   l697 05E2                   l689 0500  
                 l858 0CBD                   l778 0E20                   l794 0FBB                   l786 0F4F  
                 l859 0CBD                   l779 0E43                   l795 0FE4                   l787 0F6A  
                 l699 0576                   l868 0D5C                   l788 0FFF                   l796 0FFE  
                 l869 0D66                   l789 0F88                   l797 0FFF                   _RB0 0030  
                 _RB1 0031                   _RC0 0038                   _RB2 0032                   _RC1 0039  
                 _RB3 0033                   _RD0 0040                   _RC2 003A                   _RD1 0041  
                 _RC3 003B                   _RD2 0042                   _RB6 0036                   _RD3 0043  
                 _RB7 0037                   _RD4 0044                   _RD5 0045                   _RD6 0046  
                 _RD7 0047                   _dat 0CE3                   _cmd 0CBE          ?_getlogicseq 0070  
                 fsr0 0004                   indf 0000          ___awmod@sign 0076                  l1010 0F20  
                l1011 0EF2                  l1012 0EE6                  l1013 0EF7                  l1014 0EF8  
                l1015 0F11                  l1016 0F1F                  l1008 0ECC                  l1017 0F2A  
                l1009 0EDA                  l1018 0F31                  l1080 0E7A                  l3000 0453  
                l1081 0E8B                  l1082 0E8C                  l3010 0488                  l3002 0467  
                l1083 0E9D                  l1084 0EAB                  l1076 0E66                  l3100 066A  
                l3020 04E0                  l3012 048E                  l3004 0474                  l1085 0EB6  
                l1077 0E70                  l1086 0EBD                  l1078 0EAC                  l3110 06B5  
                l3102 0670                  l3030 0500                  l3022 04E6                  l3014 049B  
                l3006 047B                  ?_dat 0078                  l1079 0E86                  l3120 06E7  
                l3112 06C8                  l3104 0676                  l3032 0509                  l3040 0522  
                l3016 04AE                  l3024 04EE                  l3008 0482                  l1290 0C4F  
                l3130 0704                  l3122 06E8                  l3114 06CE                  l3106 0683  
                l3050 0568                  l3042 0528                  l3034 050F                  l3018 04CD  
                l3026 04F1                  ?_cmd 0078                  l3140 0743                  l3124 06F1  
                l3132 070A                  l3108 0696                  l3116 06D6                  l3060 058F  
                l3052 056F                  l3044 0534                  l3036 0515                  l3028 04FF  
                l3150 076A                  l3142 0750                  l3134 0710                  l3126 06F7  
                l3118 06D9                  l3062 05A2                  l3070 05E2                  l3054 0576  
                l3046 0547                  l3038 051C                  l1288 0C4C                  l2600 0C77  
                l3160 07C2                  l3152 0777                  l3144 0757                  l3136 071C  
                l3128 06FD                  l3080 0603                  l3064 05C1                  l3056 057C  
                l3072 05E5                  l3048 055B                  l2610 02B6                  l2602 0276  
                l3170 07E5                  l3154 078A                  l3162 07CA                  l3146 075E  
                l3138 072F                  l3090 0628                  l3082 0609                  l3074 05F3  
                l3066 05D4                  l3058 0582                  l2612 02BC                  l2604 027A  
                l2620 0D5C                  l2700 0EB6                  l3172 07EB                  l3156 07A9  
                l3148 0764                  l3164 07CD                  l3092 063B                  l3084 0610  
                l3076 05F4                  l3068 05DA                  l3180 0C8E                  l2606 0297  
                l2614 02D9                  l2622 0D60                  l2630 0EBE                  l2702 0EBD  
                l2710 0196                  l3174 07F1                  l3166 07DB                  l3158 07BC  
                l3094 064F                  l3078 05FD                  l3086 0616                  l3182 0C94  
                l2608 0298                  l2616 0C45                  l2624 0D6D                  l2640 0EDA  
                l2632 0EC3                  l2720 01C5                  l2712 019C                  l2704 018B  
                l2800 0D88                  l3176 07F8                  l3168 07DC                  l3096 065C  
                l3088 061C                  l2626 0D7B                  l2618 0D59                  l2650 0EF2  
                l2642 0EDC                  l2634 0ECC                  l2730 01E7                  l2722 01C9  
                l2714 01A4                  l2706 018F                  l2802 0D91                  l2810 00A3  
                l3098 0663                  l3178 0C89                  l2628 0D82                  l2660 0F18  
                l2652 0EF8                  l2644 0EE2                  l2636 0ED0                  l2740 021E  
                l2732 0200                  l2716 01A9                  l2724 01D2                  l2708 0195  
                l2804 0D9A                  l2900 016B                  l2820 00BB                  l2812 00AC  
                l2590 0D31                  l2654 0F09                  l2646 0EE6                  l2662 0F20  
                l2638 0ED5                  l2670 0E58                  l2750 0267                  l2742 022C  
                l2734 0204                  l2726 01D8                  l2718 01BE                  l2806 0DA3  
                l2910 017C                  l2902 016C                  l2830 00CC                  l2822 00C0  
                l2814 00B2                  l2592 0D36                  l2664 0F24                  l2656 0F0F  
                l2648 0EED                  l2680 0E76                  l2672 0E5D                  l2744 022D  
                l2728 01E6                  l2736 0212                  l2760 0CD6                  l2752 0CBE  
                l2808 0DAC                  l2912 0181                  l2904 0171                  l2840 00E9  
                l2832 00D1                  l2824 00C1                  l2816 00B5                  l2920 0DF4  
                l2586 0C9F                  l2594 0D3B                  l2666 0F2A                  l2658 0F11  
                l2690 0E96                  l2682 0E7A                  l2674 0E66                  l2746 0248  
                l2738 0216                  l2762 0CD9                  l2754 0CC9                  l2770 0CF2  
                l2906 0176                  l2914 0185                  l2850 00FA                  l2842 00EE  
                l2834 00D6                  l2826 00C6                  l2818 00B6                  l2930 0E20  
                l2922 0DFD                  l2588 0CA5                  l2596 0D46                  l2668 0F31  
                l2692 0E9D                  l2684 0E81                  l2676 0E6A                  l2748 0250  
                l2756 0CCC                  l2772 0CFB                  l2764 0CE3                  l2780 0DC2  
                l2916 018A                  l2908 0177                  l2860 010F                  l2852 00FF  
                l2844 00EF                  l2828 00CB                  l2836 00DA                  l2932 0E23  
                l2924 0E03                  l2940 0F46                  l2598 0C75                  l2694 0EA4  
                l2686 0E86                  l2678 0E70                  l2758 0CCD                  l2774 0CFE  
                l2766 0CEE                  l2790 0DDC                  l2782 0DC6                  l2870 0128  
                l2854 0104                  l2846 00F4                  l2862 0113                  l2838 00E3  
                l2918 0C5C                  l2934 0E3C                  l2926 0E0C                  l2950 0F6A  
                l2942 0F4A                  l2688 0E8C                  l2696 0EAC                  l2768 0CF1  
                l2792 0DE3                  l2784 0DCD                  l2776 0DB6                  l2880 013D  
                l2872 012D                  l2864 011C                  l2856 0105                  l2848 00F9  
                l2936 0E43                  l2928 0E16                  l2960 0F8D                  l2952 0F72  
                l2944 0F4C                  l2698 0EB0                  l2786 0DD1                  l2794 0DEA  
                l2778 0DBB                  l2890 0155                  l2882 013E                  l2874 0132  
                l2866 0122                  l2858 010A                  l2970 0FC4                  l2962 0F96  
                l2954 0F7F                  l2946 0F4F                  l2938 0F35                  l2788 0DD8  
                l2796 0D83                  l2892 015B                  l2884 0143                  l2876 0133  
                l2868 0127                  l2972 0FCE                  l2964 0FA0                  l2956 0F83  
                l2948 0F5C                  l2980 03FF                  l2798 0D87                  l2894 0160  
                l2886 0148                  l2878 0138                  l2974 0FE4                  l2966 0FB6  
                l2958 0F88                  l2990 042B                  l2982 040B                  l2896 0161  
                l2888 014C                  l2976 0FFD                  l2968 0FBB                  l2992 042E  
                l2984 0423                  l2898 0166                  l2994 0432                  l2986 0427  
                l2978 03BA                  l2996 0434                  l2988 0429                  l2998 0440  
                STR_1 0015                  STR_2 003B                  STR_3 004E                  STR_4 008B  
                STR_5 004F                  STR_6 004E                  STR_7 008B                  STR_8 0063  
                STR_9 004E                  u3110 02D8                  u3111 02D7                  u3200 0362  
                u3120 02F2                  u3104 02A4                  u4000 05FD                  u3201 035E  
                u3121 02EE                  u3105 02A1                  u4001 05FC                  u3050 0CBC  
                u4010 0603                  u3051 0CBB                  u3115 02D4                  u4011 0602  
                u3060 0D43                  u3220 037E                  u3140 030E                  u4100 0704  
                u4020 0610                  u3061 0D42                  u3221 037A                  u3141 030A  
                u4101 0703                  u4021 060F                  u3070 0D57                  u3214 0365  
                u3134 02F5                  u3310 0D7A                  u4110 0757                  u4030 0663  
                u3071 0D56                  u3311 0D79                  u4111 0756                  u4031 0662  
                u3080 0C87                  u3240 039A                  u3160 032A                  u3400 0F1E  
                u3320 0EC3                  u4120 075D                  u4040 0669                  u3081 0C86  
                u3241 0396                  u3161 0326                  u3305 0D6E                  u3401 0F1D  
                u3321 0EC2                  u4121 075C                  u4041 0668                  u3234 0381  
                u3154 0311                  u3090 0296                  u3410 0F24                  u3330 0ED0  
                u4130 0764                  u4050 0670                  u3091 0295                  u3331 0ECF  
                u4131 0763                  u4051 066F                  u3260 03B6                  u3180 0346  
                u3340 0EE2                  u3500 0EB0                  u3420 0E5D                  u4140 076A  
                u4060 0676                  u3085 0C83                  u3261 03B2                  u3181 0342  
                u3341 0EE1                  u3421 0E5C                  u4141 0769                  u4061 0675  
                u3254 039D                  u3174 032D                  u3430 0E6A                  u3510 0194  
                u4150 07DA                  u4070 06E6                  u3095 0292                  u3431 0E69  
                u3511 0193                  u4151 07D9                  u4071 06E5                  u3280 0D60  
                u3360 0EF6                  u3440 0E76                  u3520 019C                  u3600 0DD8  
                u4160 07E5                  u4080 06F1                  u3281 0D5F                  u3361 0EF5  
                u3441 0E75                  u3521 019B                  u3601 0DD7                  u4161 07E4  
                u4081 06F0                  u3274 03B9                  u3194 0349                  u3530 01A9  
                u3610 0DE3                  u4170 07EB                  u4090 06F7                  u3355 0EE7  
                u3531 01A8                  u3611 0DE2                  u4171 07EA                  u4155 07D6  
                u4091 06F6                  u4075 06E2                  u3380 0F09                  u3460 0E8A  
                u3540 01E5                  u3700 0122                  u3620 00B2                  u4180 07F8  
                u3381 0F08                  u3461 0E89                  u3541 01E4                  u3701 0121  
                u3621 00B1                  u4181 07F7                  u3470 0E96                  u3550 0211  
                u3710 012D                  u3630 00BB                  u3295 0D67                  u3375 0EF9  
                u3471 0E95                  u3455 0E7B                  u3551 0210                  u3711 012C  
                u3631 00BA                  u3560 022B                  u3720 0138                  u3640 00C6  
                u3800 0E56                  u3385 0F05                  u3561 022A                  u3545 01E1  
                u3721 0137                  u3641 00C5                  u3801 0E55                  u3490 0EAA  
                u3570 0274                  u3730 0143                  u3650 00D1                  u3810 0F69  
                u3395 0F12                  u3491 0EA9                  u3475 0E92                  u3571 0273  
                u3555 020D                  u3731 0142                  u3651 00D0                  u3811 0F68  
                u3580 0DC2                  u3740 015B                  u3660 00E9                  u3820 0F7F  
                u3900 048E                  u3485 0E9E                  u3565 0227                  u3581 0DC1  
                u3741 015A                  u3661 00E8                  u3821 0F7E                  u3901 048D  
                u3590 0DCD                  u3750 0166                  u3670 00F4                  u3830 0FB5  
                u3910 04FE                  u3575 0270                  u3591 0DCC                  u3751 0165  
                u3671 00F3                  u3831 0FB4                  u3911 04FD                  u3760 0171  
                u3680 00FF                  u3840 0FE3                  u3920 0509                  u3761 0170  
                u3681 00FE                  u3841 0FE2                  u3825 0F7B                  u3921 0508  
                u3770 017C                  u3690 010A                  u3850 0FFC                  u3930 050F  
                u3771 017B                  u3691 0109                  u3851 0FFB                  u3835 0FB1  
                u3931 050E                  u3915 04FA                  u3780 0DFD                  u3940 051C  
                u3860 0415                  u3781 0DFC                  u3845 0FDF                  u3941 051B  
                u3790 0E0C                  u3950 056F                  u3870 047B                  u3791 0E0B  
                u3855 0FF8                  u3951 056E                  u3871 047A                  u3960 0575  
                u3880 0481                  u3961 0574                  u3881 0480                  u3970 057C  
                u3890 0488                  u3971 057B                  u3891 0487                  u3980 0582  
                u3981 0581                  u3990 05F2                  u3991 05F1                  u3995 05EE  
                _main 0C89                  _scan 00A3                  btemp 007E                  start 0000  
               ??_dat 007A                 ??_cmd 007A                 ?_main 0070                 ?_scan 0074  
     __end_of___awdiv 0F32                 STR_10 008B                 STR_11 0077                 STR_12 004E  
               STR_13 008B       __end_of___awmod 0EBE       ___awdiv@divisor 0070       ___awdiv@counter 0075  
               _PORTB 0006                 _TRISB 0086                 _TRISC 0087                 _TRISD 0088  
               _delay 0C75                 _itoaa 018B       __end_of_initlcd 0DB6                 _write 0DF4  
               pclath 000A                 status 0003                 wtemp0 007E          __end_of_main 0C9E  
        __end_of_scan 018B                ??_main 007E                ??_scan 0076                ?_delay 0070  
              ?_itoaa 0079      ___awdiv@dividend 0072                ?_write 0042      __end_of_clearlcd 0C66  
              ___wmul 0D59             ??___awdiv 0074             ??___awmod 0074                _actrow 0DB6  
         setLCD@vbool 0020                _setLCD 0276                delay@x 0070      ___awdiv@quotient 0077  
     ___awmod@divisor 0070                _scroll 0F32       ___awmod@counter 0075                _strcat 0D30  
              clrloop 0C55                _strcpy 0C9E             ??_initlcd 007A      __end_of_resetout 0C4C  
__size_of_getlogicseq 0446                write@i 007C        __pcstackCOMMON 0070          __pidataBANK0 0C66  
        __pidataBANK3 0C40         __end_of_delay 0C89         __end_of_itoaa 0276         __end_of_write 0E58  
             ??_delay 0072               ??_itoaa 007C               ??_write 007A            __pbssBANK3 0190  
          dat@Command 0078            __pmaintext 0C89               ?___wmul 0070               ?_actrow 0072  
          cmd@Command 0078               ?_setLCD 0070               ?_scroll 0048               ?_strcat 0070  
             ?_strcpy 0070         getlogicseq@bf 00C0         getlogicseq@nf 00E6         getlogicseq@wf 00E8  
           ?_clearlcd 0070             ?_resetout 0070               ___awdiv 0EBE               ___awmod 0E58  
     __size_of___wmul 002A       __size_of_actrow 003E       __size_of_setLCD 0144       __size_of_scroll 00CE  
          _initkeypad 0C4C       __size_of_strcat 0029       __size_of_strcpy 0020          setLCD@number 0070  
        __size_of_dat 0025          __size_of_cmd 0025               _initlcd 0D83      ___awmod@dividend 0072  
             actrow@n 0072            ??_clearlcd 007A           scroll@endat 0053       getlogicseq@snum 00C2  
         scroll@loopn 0055           scroll@loops 0048  end_of_initialization 0D2C               setLCD@i 0040  
             init_ram 0096               scroll@i 005A            ??_resetout 0070        __end_of___wmul 0D83  
      __end_of_actrow 0DF4           ?_initkeypad 0070        __end_of_setLCD 03BA        __end_of_scroll 1000  
       ??_getlogicseq 005C        __end_of_strcat 0D59        __end_of_strcpy 0CBE   start_initialization 0D08  
         __end_of_dat 0D08           __end_of_cmd 0CE3              ??___wmul 0074            setLCD@size 0013  
            ??_actrow 0074           __pdataBANK0 0060           __pdataBANK3 01A0              ??_setLCD 0072  
            ??_scroll 004A              ??_strcat 0071              ??_strcpy 0071            itoaa@count 0020  
          itoaa@value 0079         __pcstackBANK0 0020         __pcstackBANK1 00A0     __size_of_clearlcd 000A  
 __end_of_getlogicseq 0800   __size_of_initkeypad 0008              ?___awdiv 0070             __ptext440 03BA  
           __ptext441 0F32             __ptext450 0E58             __ptext442 0DF4             __ptext451 0EBE  
           __ptext443 0C5C              ?___awmod 0070             __ptext452 0D59             __ptext444 00A3  
           __ptext453 0C45             __ptext445 0D83             __ptext454 0276             __ptext446 0DB6  
           __ptext455 0C75             __ptext447 0CE3             __ptext456 0D30             __ptext448 0CBE  
           __ptext457 0C9E             __ptext449 018B             __ptext458 0C4C             __ptext459 0000  
   __size_of_resetout 0007             __pstrings 0003              ?_initlcd 0070        __size_of_delay 0014  
      __size_of_itoaa 00EB        __size_of_write 0064        getlogicseq@num 00EC        getlogicseq@str 00A0  
      ___wmul@product 0074     getlogicseq@ccount 00EA           __stringbase 0012     ___wmul@multiplier 0070  
       scroll@startat 0051           _getlogicseq 03BA             init_fetch 0092      __size_of___awdiv 0074  
    __size_of___awmod 0066             itoaa@temp 0022          ??_initkeypad 0070            strcat@from 0070  
    __size_of_initlcd 0033              _clearlcd 0C5C      getlogicseq@F1250 006A      getlogicseq@F1252 01A0  
    getlogicseq@F1246 0060      getlogicseq@F1255 0190      getlogicseq@F1248 0065            strcpy@from 0070  
       __size_of_main 0015         __size_of_scan 00E8             scroll@len 0058             scroll@str 0057  
  __end_of_initkeypad 0C54              clear_ram 0C54            write@erase 0046              _resetout 0C45  
            itoaa@ptr 007B             stringcode 000D              scroll@en 004F              scroll@st 004D  
           write@line 0044   getlogicseq@logic_d1 00D2   getlogicseq@logic_d2 00D7   getlogicseq@logic_d3 00DC  
 getlogicseq@logic_d4 00E1              strcat@cp 0073              strcat@to 0072              strcpy@cp 0073  
            strcpy@to 0072              stringdir 000D              stringtab 0003              write@str 0042  
